
terrsko.elf:     file format elf32-littlearm

Sections:
Idx Name          Size      VMA       LMA       File off  Algn
  0 .isr_vector   000001d8  08000000  08000000  00010000  2**0
                  CONTENTS, ALLOC, LOAD, READONLY, DATA
  1 .text         00001044  080001d8  080001d8  000101d8  2**2
                  CONTENTS, ALLOC, LOAD, READONLY, CODE
  2 .rodata       00000010  0800121c  0800121c  0001121c  2**2
                  CONTENTS, ALLOC, LOAD, READONLY, DATA
  3 .ARM.extab    00000000  0800122c  0800122c  0002000c  2**0
                  CONTENTS
  4 .ARM          00000000  0800122c  0800122c  0002000c  2**0
                  CONTENTS
  5 .preinit_array 00000000  0800122c  0800122c  0002000c  2**0
                  CONTENTS, ALLOC, LOAD, DATA
  6 .init_array   00000004  0800122c  0800122c  0001122c  2**2
                  CONTENTS, ALLOC, LOAD, DATA
  7 .fini_array   00000004  08001230  08001230  00011230  2**2
                  CONTENTS, ALLOC, LOAD, DATA
  8 .data         0000000c  20000000  08001234  00020000  2**2
                  CONTENTS, ALLOC, LOAD, DATA
  9 .bss          00000020  2000000c  08001240  0002000c  2**2
                  ALLOC
 10 ._user_heap_stack 00000604  2000002c  08001240  0002002c  2**0
                  ALLOC
 11 .ARM.attributes 00000030  00000000  00000000  0002000c  2**0
                  CONTENTS, READONLY
 12 .debug_info   00003d43  00000000  00000000  0002003c  2**0
                  CONTENTS, READONLY, DEBUGGING, OCTETS
 13 .debug_abbrev 00000e06  00000000  00000000  00023d7f  2**0
                  CONTENTS, READONLY, DEBUGGING, OCTETS
 14 .debug_aranges 00000520  00000000  00000000  00024b88  2**3
                  CONTENTS, READONLY, DEBUGGING, OCTETS
 15 .debug_ranges 00000498  00000000  00000000  000250a8  2**3
                  CONTENTS, READONLY, DEBUGGING, OCTETS
 16 .debug_macro  00022f43  00000000  00000000  00025540  2**0
                  CONTENTS, READONLY, DEBUGGING, OCTETS
 17 .debug_line   00004bd1  00000000  00000000  00048483  2**0
                  CONTENTS, READONLY, DEBUGGING, OCTETS
 18 .debug_str    000de882  00000000  00000000  0004d054  2**0
                  CONTENTS, READONLY, DEBUGGING, OCTETS
 19 .comment      00000050  00000000  00000000  0012b8d6  2**0
                  CONTENTS, READONLY
 20 .debug_frame  000012b8  00000000  00000000  0012b928  2**2
                  CONTENTS, READONLY, DEBUGGING, OCTETS

Disassembly of section .text:

080001d8 <__do_global_dtors_aux>:
 80001d8:	b510      	push	{r4, lr}
 80001da:	4c05      	ldr	r4, [pc, #20]	; (80001f0 <__do_global_dtors_aux+0x18>)
 80001dc:	7823      	ldrb	r3, [r4, #0]
 80001de:	b933      	cbnz	r3, 80001ee <__do_global_dtors_aux+0x16>
 80001e0:	4b04      	ldr	r3, [pc, #16]	; (80001f4 <__do_global_dtors_aux+0x1c>)
 80001e2:	b113      	cbz	r3, 80001ea <__do_global_dtors_aux+0x12>
 80001e4:	4804      	ldr	r0, [pc, #16]	; (80001f8 <__do_global_dtors_aux+0x20>)
 80001e6:	f3af 8000 	nop.w
 80001ea:	2301      	movs	r3, #1
 80001ec:	7023      	strb	r3, [r4, #0]
 80001ee:	bd10      	pop	{r4, pc}
 80001f0:	2000000c 	.word	0x2000000c
 80001f4:	00000000 	.word	0x00000000
 80001f8:	08001204 	.word	0x08001204

080001fc <frame_dummy>:
 80001fc:	b508      	push	{r3, lr}
 80001fe:	4b03      	ldr	r3, [pc, #12]	; (800020c <frame_dummy+0x10>)
 8000200:	b11b      	cbz	r3, 800020a <frame_dummy+0xe>
 8000202:	4903      	ldr	r1, [pc, #12]	; (8000210 <frame_dummy+0x14>)
 8000204:	4803      	ldr	r0, [pc, #12]	; (8000214 <frame_dummy+0x18>)
 8000206:	f3af 8000 	nop.w
 800020a:	bd08      	pop	{r3, pc}
 800020c:	00000000 	.word	0x00000000
 8000210:	20000010 	.word	0x20000010
 8000214:	08001204 	.word	0x08001204

08000218 <main>:
/**
  * @brief  The application entry point.
  * @retval int
  */
int main(void)
{
 8000218:	b580      	push	{r7, lr}
 800021a:	af00      	add	r7, sp, #0
  /* USER CODE END 1 */

  /* MCU Configuration--------------------------------------------------------*/

  /* Reset of all peripherals, Initializes the Flash interface and the Systick. */
  HAL_Init();
 800021c:	f000 f8d1 	bl	80003c2 <HAL_Init>
  /* USER CODE BEGIN Init */

  /* USER CODE END Init */

  /* Configure the system clock */
  SystemClock_Config();
 8000220:	f000 f801 	bl	8000226 <SystemClock_Config>

  /* USER CODE END 2 */

  /* Infinite loop */
  /* USER CODE BEGIN WHILE */
  while (1)
 8000224:	e7fe      	b.n	8000224 <main+0xc>

08000226 <SystemClock_Config>:
/**
  * @brief System Clock Configuration
  * @retval None
  */
void SystemClock_Config(void)
{
 8000226:	b580      	push	{r7, lr}
 8000228:	b094      	sub	sp, #80	; 0x50
 800022a:	af00      	add	r7, sp, #0
  RCC_OscInitTypeDef RCC_OscInitStruct = {0};
 800022c:	f107 0318 	add.w	r3, r7, #24
 8000230:	2238      	movs	r2, #56	; 0x38
 8000232:	2100      	movs	r1, #0
 8000234:	4618      	mov	r0, r3
 8000236:	f000 ffdd 	bl	80011f4 <memset>
  RCC_ClkInitTypeDef RCC_ClkInitStruct = {0};
 800023a:	1d3b      	adds	r3, r7, #4
 800023c:	2200      	movs	r2, #0
 800023e:	601a      	str	r2, [r3, #0]
 8000240:	605a      	str	r2, [r3, #4]
 8000242:	609a      	str	r2, [r3, #8]
 8000244:	60da      	str	r2, [r3, #12]
 8000246:	611a      	str	r2, [r3, #16]

  /** Configure the main internal regulator output voltage
  */
  HAL_PWREx_ControlVoltageScaling(PWR_REGULATOR_VOLTAGE_SCALE1);
 8000248:	f44f 7000 	mov.w	r0, #512	; 0x200
 800024c:	f000 fa0e 	bl	800066c <HAL_PWREx_ControlVoltageScaling>

  /** Initializes the RCC Oscillators according to the specified parameters
  * in the RCC_OscInitTypeDef structure.
  */
  RCC_OscInitStruct.OscillatorType = RCC_OSCILLATORTYPE_HSI;
 8000250:	2302      	movs	r3, #2
 8000252:	61bb      	str	r3, [r7, #24]
  RCC_OscInitStruct.HSIState = RCC_HSI_ON;
 8000254:	f44f 7380 	mov.w	r3, #256	; 0x100
 8000258:	627b      	str	r3, [r7, #36]	; 0x24
  RCC_OscInitStruct.HSICalibrationValue = RCC_HSICALIBRATION_DEFAULT;
 800025a:	2340      	movs	r3, #64	; 0x40
 800025c:	62bb      	str	r3, [r7, #40]	; 0x28
  RCC_OscInitStruct.PLL.PLLState = RCC_PLL_NONE;
 800025e:	2300      	movs	r3, #0
 8000260:	637b      	str	r3, [r7, #52]	; 0x34
  if (HAL_RCC_OscConfig(&RCC_OscInitStruct) != HAL_OK)
 8000262:	f107 0318 	add.w	r3, r7, #24
 8000266:	4618      	mov	r0, r3
 8000268:	f000 faa4 	bl	80007b4 <HAL_RCC_OscConfig>
 800026c:	4603      	mov	r3, r0
 800026e:	2b00      	cmp	r3, #0
 8000270:	d001      	beq.n	8000276 <SystemClock_Config+0x50>
  {
    Error_Handler();
 8000272:	f000 f818 	bl	80002a6 <Error_Handler>
  }

  /** Initializes the CPU, AHB and APB buses clocks
  */
  RCC_ClkInitStruct.ClockType = RCC_CLOCKTYPE_HCLK|RCC_CLOCKTYPE_SYSCLK
 8000276:	230f      	movs	r3, #15
 8000278:	607b      	str	r3, [r7, #4]
                              |RCC_CLOCKTYPE_PCLK1|RCC_CLOCKTYPE_PCLK2;
  RCC_ClkInitStruct.SYSCLKSource = RCC_SYSCLKSOURCE_HSI;
 800027a:	2301      	movs	r3, #1
 800027c:	60bb      	str	r3, [r7, #8]
  RCC_ClkInitStruct.AHBCLKDivider = RCC_SYSCLK_DIV1;
 800027e:	2300      	movs	r3, #0
 8000280:	60fb      	str	r3, [r7, #12]
  RCC_ClkInitStruct.APB1CLKDivider = RCC_HCLK_DIV1;
 8000282:	2300      	movs	r3, #0
 8000284:	613b      	str	r3, [r7, #16]
  RCC_ClkInitStruct.APB2CLKDivider = RCC_HCLK_DIV1;
 8000286:	2300      	movs	r3, #0
 8000288:	617b      	str	r3, [r7, #20]

  if (HAL_RCC_ClockConfig(&RCC_ClkInitStruct, FLASH_LATENCY_0) != HAL_OK)
 800028a:	1d3b      	adds	r3, r7, #4
 800028c:	2100      	movs	r1, #0
 800028e:	4618      	mov	r0, r3
 8000290:	f000 fda8 	bl	8000de4 <HAL_RCC_ClockConfig>
 8000294:	4603      	mov	r3, r0
 8000296:	2b00      	cmp	r3, #0
 8000298:	d001      	beq.n	800029e <SystemClock_Config+0x78>
  {
    Error_Handler();
 800029a:	f000 f804 	bl	80002a6 <Error_Handler>
  }
}
 800029e:	bf00      	nop
 80002a0:	3750      	adds	r7, #80	; 0x50
 80002a2:	46bd      	mov	sp, r7
 80002a4:	bd80      	pop	{r7, pc}

080002a6 <Error_Handler>:
/**
  * @brief  This function is executed in case of error occurrence.
  * @retval None
  */
void Error_Handler(void)
{
 80002a6:	b480      	push	{r7}
 80002a8:	af00      	add	r7, sp, #0
  \details Disables IRQ interrupts by setting the I-bit in the CPSR.
           Can only be executed in Privileged modes.
 */
__STATIC_FORCEINLINE void __disable_irq(void)
{
  __ASM volatile ("cpsid i" : : : "memory");
 80002aa:	b672      	cpsid	i
}
 80002ac:	bf00      	nop
  /* USER CODE BEGIN Error_Handler_Debug */
  /* User can add his own implementation to report the HAL error return state */
  __disable_irq();
  while (1)
 80002ae:	e7fe      	b.n	80002ae <Error_Handler+0x8>

080002b0 <HAL_MspInit>:
/* USER CODE END 0 */
/**
  * Initializes the Global MSP.
  */
void HAL_MspInit(void)
{
 80002b0:	b480      	push	{r7}
 80002b2:	b083      	sub	sp, #12
 80002b4:	af00      	add	r7, sp, #0
  /* USER CODE BEGIN MspInit 0 */

  /* USER CODE END MspInit 0 */

  __HAL_RCC_SYSCFG_CLK_ENABLE();
 80002b6:	4b0f      	ldr	r3, [pc, #60]	; (80002f4 <HAL_MspInit+0x44>)
 80002b8:	6e1b      	ldr	r3, [r3, #96]	; 0x60
 80002ba:	4a0e      	ldr	r2, [pc, #56]	; (80002f4 <HAL_MspInit+0x44>)
 80002bc:	f043 0301 	orr.w	r3, r3, #1
 80002c0:	6613      	str	r3, [r2, #96]	; 0x60
 80002c2:	4b0c      	ldr	r3, [pc, #48]	; (80002f4 <HAL_MspInit+0x44>)
 80002c4:	6e1b      	ldr	r3, [r3, #96]	; 0x60
 80002c6:	f003 0301 	and.w	r3, r3, #1
 80002ca:	607b      	str	r3, [r7, #4]
 80002cc:	687b      	ldr	r3, [r7, #4]
  __HAL_RCC_PWR_CLK_ENABLE();
 80002ce:	4b09      	ldr	r3, [pc, #36]	; (80002f4 <HAL_MspInit+0x44>)
 80002d0:	6d9b      	ldr	r3, [r3, #88]	; 0x58
 80002d2:	4a08      	ldr	r2, [pc, #32]	; (80002f4 <HAL_MspInit+0x44>)
 80002d4:	f043 5380 	orr.w	r3, r3, #268435456	; 0x10000000
 80002d8:	6593      	str	r3, [r2, #88]	; 0x58
 80002da:	4b06      	ldr	r3, [pc, #24]	; (80002f4 <HAL_MspInit+0x44>)
 80002dc:	6d9b      	ldr	r3, [r3, #88]	; 0x58
 80002de:	f003 5380 	and.w	r3, r3, #268435456	; 0x10000000
 80002e2:	603b      	str	r3, [r7, #0]
 80002e4:	683b      	ldr	r3, [r7, #0]
  /* System interrupt init*/

  /* USER CODE BEGIN MspInit 1 */

  /* USER CODE END MspInit 1 */
}
 80002e6:	bf00      	nop
 80002e8:	370c      	adds	r7, #12
 80002ea:	46bd      	mov	sp, r7
 80002ec:	f85d 7b04 	ldr.w	r7, [sp], #4
 80002f0:	4770      	bx	lr
 80002f2:	bf00      	nop
 80002f4:	40021000 	.word	0x40021000

080002f8 <NMI_Handler>:
/******************************************************************************/
/**
  * @brief This function handles Non maskable interrupt.
  */
void NMI_Handler(void)
{
 80002f8:	b480      	push	{r7}
 80002fa:	af00      	add	r7, sp, #0
  /* USER CODE BEGIN NonMaskableInt_IRQn 0 */

  /* USER CODE END NonMaskableInt_IRQn 0 */
  /* USER CODE BEGIN NonMaskableInt_IRQn 1 */
  while (1)
 80002fc:	e7fe      	b.n	80002fc <NMI_Handler+0x4>

080002fe <HardFault_Handler>:

/**
  * @brief This function handles Hard fault interrupt.
  */
void HardFault_Handler(void)
{
 80002fe:	b480      	push	{r7}
 8000300:	af00      	add	r7, sp, #0
  /* USER CODE BEGIN HardFault_IRQn 0 */

  /* USER CODE END HardFault_IRQn 0 */
  while (1)
 8000302:	e7fe      	b.n	8000302 <HardFault_Handler+0x4>

08000304 <MemManage_Handler>:

/**
  * @brief This function handles Memory management fault.
  */
void MemManage_Handler(void)
{
 8000304:	b480      	push	{r7}
 8000306:	af00      	add	r7, sp, #0
  /* USER CODE BEGIN MemoryManagement_IRQn 0 */

  /* USER CODE END MemoryManagement_IRQn 0 */
  while (1)
 8000308:	e7fe      	b.n	8000308 <MemManage_Handler+0x4>

0800030a <BusFault_Handler>:

/**
  * @brief This function handles Prefetch fault, memory access fault.
  */
void BusFault_Handler(void)
{
 800030a:	b480      	push	{r7}
 800030c:	af00      	add	r7, sp, #0
  /* USER CODE BEGIN BusFault_IRQn 0 */

  /* USER CODE END BusFault_IRQn 0 */
  while (1)
 800030e:	e7fe      	b.n	800030e <BusFault_Handler+0x4>

08000310 <UsageFault_Handler>:

/**
  * @brief This function handles Undefined instruction or illegal state.
  */
void UsageFault_Handler(void)
{
 8000310:	b480      	push	{r7}
 8000312:	af00      	add	r7, sp, #0
  /* USER CODE BEGIN UsageFault_IRQn 0 */

  /* USER CODE END UsageFault_IRQn 0 */
  while (1)
 8000314:	e7fe      	b.n	8000314 <UsageFault_Handler+0x4>

08000316 <SVC_Handler>:

/**
  * @brief This function handles System service call via SWI instruction.
  */
void SVC_Handler(void)
{
 8000316:	b480      	push	{r7}
 8000318:	af00      	add	r7, sp, #0

  /* USER CODE END SVCall_IRQn 0 */
  /* USER CODE BEGIN SVCall_IRQn 1 */

  /* USER CODE END SVCall_IRQn 1 */
}
 800031a:	bf00      	nop
 800031c:	46bd      	mov	sp, r7
 800031e:	f85d 7b04 	ldr.w	r7, [sp], #4
 8000322:	4770      	bx	lr

08000324 <DebugMon_Handler>:

/**
  * @brief This function handles Debug monitor.
  */
void DebugMon_Handler(void)
{
 8000324:	b480      	push	{r7}
 8000326:	af00      	add	r7, sp, #0

  /* USER CODE END DebugMonitor_IRQn 0 */
  /* USER CODE BEGIN DebugMonitor_IRQn 1 */

  /* USER CODE END DebugMonitor_IRQn 1 */
}
 8000328:	bf00      	nop
 800032a:	46bd      	mov	sp, r7
 800032c:	f85d 7b04 	ldr.w	r7, [sp], #4
 8000330:	4770      	bx	lr

08000332 <PendSV_Handler>:

/**
  * @brief This function handles Pendable request for system service.
  */
void PendSV_Handler(void)
{
 8000332:	b480      	push	{r7}
 8000334:	af00      	add	r7, sp, #0

  /* USER CODE END PendSV_IRQn 0 */
  /* USER CODE BEGIN PendSV_IRQn 1 */

  /* USER CODE END PendSV_IRQn 1 */
}
 8000336:	bf00      	nop
 8000338:	46bd      	mov	sp, r7
 800033a:	f85d 7b04 	ldr.w	r7, [sp], #4
 800033e:	4770      	bx	lr

08000340 <SysTick_Handler>:

/**
  * @brief This function handles System tick timer.
  */
void SysTick_Handler(void)
{
 8000340:	b580      	push	{r7, lr}
 8000342:	af00      	add	r7, sp, #0
  /* USER CODE BEGIN SysTick_IRQn 0 */

  /* USER CODE END SysTick_IRQn 0 */
  HAL_IncTick();
 8000344:	f000 f890 	bl	8000468 <HAL_IncTick>
  /* USER CODE BEGIN SysTick_IRQn 1 */

  /* USER CODE END SysTick_IRQn 1 */
}
 8000348:	bf00      	nop
 800034a:	bd80      	pop	{r7, pc}

0800034c <SystemInit>:
  * @param  None
  * @retval None
  */

void SystemInit(void)
{
 800034c:	b480      	push	{r7}
 800034e:	af00      	add	r7, sp, #0
  /* FPU settings ------------------------------------------------------------*/
  #if (__FPU_PRESENT == 1) && (__FPU_USED == 1)
    SCB->CPACR |= ((3UL << (10*2))|(3UL << (11*2)));  /* set CP10 and CP11 Full Access */
 8000350:	4b06      	ldr	r3, [pc, #24]	; (800036c <SystemInit+0x20>)
 8000352:	f8d3 3088 	ldr.w	r3, [r3, #136]	; 0x88
 8000356:	4a05      	ldr	r2, [pc, #20]	; (800036c <SystemInit+0x20>)
 8000358:	f443 0370 	orr.w	r3, r3, #15728640	; 0xf00000
 800035c:	f8c2 3088 	str.w	r3, [r2, #136]	; 0x88

  /* Configure the Vector Table location add offset address ------------------*/
#if defined(USER_VECT_TAB_ADDRESS)
  SCB->VTOR = VECT_TAB_BASE_ADDRESS | VECT_TAB_OFFSET; /* Vector Table Relocation in Internal SRAM */
#endif /* USER_VECT_TAB_ADDRESS */
}
 8000360:	bf00      	nop
 8000362:	46bd      	mov	sp, r7
 8000364:	f85d 7b04 	ldr.w	r7, [sp], #4
 8000368:	4770      	bx	lr
 800036a:	bf00      	nop
 800036c:	e000ed00 	.word	0xe000ed00

08000370 <Reset_Handler>:

    .section	.text.Reset_Handler
	.weak	Reset_Handler
	.type	Reset_Handler, %function
Reset_Handler:
  ldr   r0, =_estack
 8000370:	480d      	ldr	r0, [pc, #52]	; (80003a8 <LoopForever+0x2>)
  mov   sp, r0          /* set stack pointer */
 8000372:	4685      	mov	sp, r0

/* Copy the data segment initializers from flash to SRAM */
  ldr r0, =_sdata
 8000374:	480d      	ldr	r0, [pc, #52]	; (80003ac <LoopForever+0x6>)
  ldr r1, =_edata
 8000376:	490e      	ldr	r1, [pc, #56]	; (80003b0 <LoopForever+0xa>)
  ldr r2, =_sidata
 8000378:	4a0e      	ldr	r2, [pc, #56]	; (80003b4 <LoopForever+0xe>)
  movs r3, #0
 800037a:	2300      	movs	r3, #0
  b	LoopCopyDataInit
 800037c:	e002      	b.n	8000384 <LoopCopyDataInit>

0800037e <CopyDataInit>:

CopyDataInit:
  ldr r4, [r2, r3]
 800037e:	58d4      	ldr	r4, [r2, r3]
  str r4, [r0, r3]
 8000380:	50c4      	str	r4, [r0, r3]
  adds r3, r3, #4
 8000382:	3304      	adds	r3, #4

08000384 <LoopCopyDataInit>:

LoopCopyDataInit:
  adds r4, r0, r3
 8000384:	18c4      	adds	r4, r0, r3
  cmp r4, r1
 8000386:	428c      	cmp	r4, r1
  bcc CopyDataInit
 8000388:	d3f9      	bcc.n	800037e <CopyDataInit>
  
/* Zero fill the bss segment. */
  ldr r2, =_sbss
 800038a:	4a0b      	ldr	r2, [pc, #44]	; (80003b8 <LoopForever+0x12>)
  ldr r4, =_ebss
 800038c:	4c0b      	ldr	r4, [pc, #44]	; (80003bc <LoopForever+0x16>)
  movs r3, #0
 800038e:	2300      	movs	r3, #0
  b LoopFillZerobss
 8000390:	e001      	b.n	8000396 <LoopFillZerobss>

08000392 <FillZerobss>:

FillZerobss:
  str  r3, [r2]
 8000392:	6013      	str	r3, [r2, #0]
  adds r2, r2, #4
 8000394:	3204      	adds	r2, #4

08000396 <LoopFillZerobss>:

LoopFillZerobss:
  cmp r2, r4
 8000396:	42a2      	cmp	r2, r4
  bcc FillZerobss
 8000398:	d3fb      	bcc.n	8000392 <FillZerobss>

/* Call the clock system intitialization function.*/
    bl  SystemInit
 800039a:	f7ff ffd7 	bl	800034c <SystemInit>
/* Call static constructors */
    bl __libc_init_array
 800039e:	f000 ff05 	bl	80011ac <__libc_init_array>
/* Call the application's entry point.*/
	bl	main
 80003a2:	f7ff ff39 	bl	8000218 <main>

080003a6 <LoopForever>:

LoopForever:
    b LoopForever
 80003a6:	e7fe      	b.n	80003a6 <LoopForever>
  ldr   r0, =_estack
 80003a8:	20020000 	.word	0x20020000
  ldr r0, =_sdata
 80003ac:	20000000 	.word	0x20000000
  ldr r1, =_edata
 80003b0:	2000000c 	.word	0x2000000c
  ldr r2, =_sidata
 80003b4:	08001234 	.word	0x08001234
  ldr r2, =_sbss
 80003b8:	2000000c 	.word	0x2000000c
  ldr r4, =_ebss
 80003bc:	2000002c 	.word	0x2000002c

080003c0 <ADC1_2_IRQHandler>:
 * @retval : None
*/
    .section	.text.Default_Handler,"ax",%progbits
Default_Handler:
Infinite_Loop:
	b	Infinite_Loop
 80003c0:	e7fe      	b.n	80003c0 <ADC1_2_IRQHandler>

080003c2 <HAL_Init>:
  *         each 1ms in the SysTick_Handler() interrupt handler.
  *
  * @retval HAL status
  */
HAL_StatusTypeDef HAL_Init(void)
{
 80003c2:	b580      	push	{r7, lr}
 80003c4:	b082      	sub	sp, #8
 80003c6:	af00      	add	r7, sp, #0
  HAL_StatusTypeDef  status = HAL_OK;
 80003c8:	2300      	movs	r3, #0
 80003ca:	71fb      	strb	r3, [r7, #7]
#if (PREFETCH_ENABLE != 0U)
  __HAL_FLASH_PREFETCH_BUFFER_ENABLE();
#endif /* PREFETCH_ENABLE */

  /* Set Interrupt Group Priority */
  HAL_NVIC_SetPriorityGrouping(NVIC_PRIORITYGROUP_4);
 80003cc:	2003      	movs	r0, #3
 80003ce:	f000 f91b 	bl	8000608 <HAL_NVIC_SetPriorityGrouping>

  /* Use SysTick as time base source and configure 1ms tick (default clock after Reset is HSI) */
  if (HAL_InitTick(TICK_INT_PRIORITY) != HAL_OK)
 80003d2:	200f      	movs	r0, #15
 80003d4:	f000 f80e 	bl	80003f4 <HAL_InitTick>
 80003d8:	4603      	mov	r3, r0
 80003da:	2b00      	cmp	r3, #0
 80003dc:	d002      	beq.n	80003e4 <HAL_Init+0x22>
  {
    status = HAL_ERROR;
 80003de:	2301      	movs	r3, #1
 80003e0:	71fb      	strb	r3, [r7, #7]
 80003e2:	e001      	b.n	80003e8 <HAL_Init+0x26>
  }
  else
  {
    /* Init the low level hardware */
    HAL_MspInit();
 80003e4:	f7ff ff64 	bl	80002b0 <HAL_MspInit>
  }

  /* Return function status */
  return status;
 80003e8:	79fb      	ldrb	r3, [r7, #7]

}
 80003ea:	4618      	mov	r0, r3
 80003ec:	3708      	adds	r7, #8
 80003ee:	46bd      	mov	sp, r7
 80003f0:	bd80      	pop	{r7, pc}
	...

080003f4 <HAL_InitTick>:
  *       implementation  in user file.
  * @param TickPriority: Tick interrupt priority.
  * @retval HAL status
  */
__weak HAL_StatusTypeDef HAL_InitTick(uint32_t TickPriority)
{
 80003f4:	b580      	push	{r7, lr}
 80003f6:	b084      	sub	sp, #16
 80003f8:	af00      	add	r7, sp, #0
 80003fa:	6078      	str	r0, [r7, #4]
  HAL_StatusTypeDef  status = HAL_OK;
 80003fc:	2300      	movs	r3, #0
 80003fe:	73fb      	strb	r3, [r7, #15]

  if (uwTickFreq != 0U)
 8000400:	4b16      	ldr	r3, [pc, #88]	; (800045c <HAL_InitTick+0x68>)
 8000402:	681b      	ldr	r3, [r3, #0]
 8000404:	2b00      	cmp	r3, #0
 8000406:	d022      	beq.n	800044e <HAL_InitTick+0x5a>
  {
    /* Configure the SysTick to have interrupt in 1ms time basis*/
    if (HAL_SYSTICK_Config(SystemCoreClock / (1000U / uwTickFreq)) == 0U)
 8000408:	4b15      	ldr	r3, [pc, #84]	; (8000460 <HAL_InitTick+0x6c>)
 800040a:	681a      	ldr	r2, [r3, #0]
 800040c:	4b13      	ldr	r3, [pc, #76]	; (800045c <HAL_InitTick+0x68>)
 800040e:	681b      	ldr	r3, [r3, #0]
 8000410:	f44f 717a 	mov.w	r1, #1000	; 0x3e8
 8000414:	fbb1 f3f3 	udiv	r3, r1, r3
 8000418:	fbb2 f3f3 	udiv	r3, r2, r3
 800041c:	4618      	mov	r0, r3
 800041e:	f000 f918 	bl	8000652 <HAL_SYSTICK_Config>
 8000422:	4603      	mov	r3, r0
 8000424:	2b00      	cmp	r3, #0
 8000426:	d10f      	bne.n	8000448 <HAL_InitTick+0x54>
    {
      /* Configure the SysTick IRQ priority */
      if (TickPriority < (1UL << __NVIC_PRIO_BITS))
 8000428:	687b      	ldr	r3, [r7, #4]
 800042a:	2b0f      	cmp	r3, #15
 800042c:	d809      	bhi.n	8000442 <HAL_InitTick+0x4e>
      {
        HAL_NVIC_SetPriority(SysTick_IRQn, TickPriority, 0U);
 800042e:	2200      	movs	r2, #0
 8000430:	6879      	ldr	r1, [r7, #4]
 8000432:	f04f 30ff 	mov.w	r0, #4294967295	; 0xffffffff
 8000436:	f000 f8f2 	bl	800061e <HAL_NVIC_SetPriority>
        uwTickPrio = TickPriority;
 800043a:	4a0a      	ldr	r2, [pc, #40]	; (8000464 <HAL_InitTick+0x70>)
 800043c:	687b      	ldr	r3, [r7, #4]
 800043e:	6013      	str	r3, [r2, #0]
 8000440:	e007      	b.n	8000452 <HAL_InitTick+0x5e>
      }
      else
      {
        status = HAL_ERROR;
 8000442:	2301      	movs	r3, #1
 8000444:	73fb      	strb	r3, [r7, #15]
 8000446:	e004      	b.n	8000452 <HAL_InitTick+0x5e>
      }
    }
    else
    {
      status = HAL_ERROR;
 8000448:	2301      	movs	r3, #1
 800044a:	73fb      	strb	r3, [r7, #15]
 800044c:	e001      	b.n	8000452 <HAL_InitTick+0x5e>
    }
  }
  else
  {
    status = HAL_ERROR;
 800044e:	2301      	movs	r3, #1
 8000450:	73fb      	strb	r3, [r7, #15]
  }

  /* Return function status */
  return status;
 8000452:	7bfb      	ldrb	r3, [r7, #15]
}
 8000454:	4618      	mov	r0, r3
 8000456:	3710      	adds	r7, #16
 8000458:	46bd      	mov	sp, r7
 800045a:	bd80      	pop	{r7, pc}
 800045c:	20000008 	.word	0x20000008
 8000460:	20000000 	.word	0x20000000
 8000464:	20000004 	.word	0x20000004

08000468 <HAL_IncTick>:
  * @note This function is declared as __weak to be overwritten in case of other
  *      implementations in user file.
  * @retval None
  */
__weak void HAL_IncTick(void)
{
 8000468:	b480      	push	{r7}
 800046a:	af00      	add	r7, sp, #0
  uwTick += uwTickFreq;
 800046c:	4b05      	ldr	r3, [pc, #20]	; (8000484 <HAL_IncTick+0x1c>)
 800046e:	681a      	ldr	r2, [r3, #0]
 8000470:	4b05      	ldr	r3, [pc, #20]	; (8000488 <HAL_IncTick+0x20>)
 8000472:	681b      	ldr	r3, [r3, #0]
 8000474:	4413      	add	r3, r2
 8000476:	4a03      	ldr	r2, [pc, #12]	; (8000484 <HAL_IncTick+0x1c>)
 8000478:	6013      	str	r3, [r2, #0]
}
 800047a:	bf00      	nop
 800047c:	46bd      	mov	sp, r7
 800047e:	f85d 7b04 	ldr.w	r7, [sp], #4
 8000482:	4770      	bx	lr
 8000484:	20000028 	.word	0x20000028
 8000488:	20000008 	.word	0x20000008

0800048c <HAL_GetTick>:
  * @note This function is declared as __weak to be overwritten in case of other
  *       implementations in user file.
  * @retval tick value
  */
__weak uint32_t HAL_GetTick(void)
{
 800048c:	b480      	push	{r7}
 800048e:	af00      	add	r7, sp, #0
  return uwTick;
 8000490:	4b03      	ldr	r3, [pc, #12]	; (80004a0 <HAL_GetTick+0x14>)
 8000492:	681b      	ldr	r3, [r3, #0]
}
 8000494:	4618      	mov	r0, r3
 8000496:	46bd      	mov	sp, r7
 8000498:	f85d 7b04 	ldr.w	r7, [sp], #4
 800049c:	4770      	bx	lr
 800049e:	bf00      	nop
 80004a0:	20000028 	.word	0x20000028

080004a4 <__NVIC_SetPriorityGrouping>:
           In case of a conflict between priority grouping and available
           priority bits (__NVIC_PRIO_BITS), the smallest possible priority group is set.
  \param [in]      PriorityGroup  Priority grouping field.
 */
__STATIC_INLINE void __NVIC_SetPriorityGrouping(uint32_t PriorityGroup)
{
 80004a4:	b480      	push	{r7}
 80004a6:	b085      	sub	sp, #20
 80004a8:	af00      	add	r7, sp, #0
 80004aa:	6078      	str	r0, [r7, #4]
  uint32_t reg_value;
  uint32_t PriorityGroupTmp = (PriorityGroup & (uint32_t)0x07UL);             /* only values 0..7 are used          */
 80004ac:	687b      	ldr	r3, [r7, #4]
 80004ae:	f003 0307 	and.w	r3, r3, #7
 80004b2:	60fb      	str	r3, [r7, #12]

  reg_value  =  SCB->AIRCR;                                                   /* read old register configuration    */
 80004b4:	4b0c      	ldr	r3, [pc, #48]	; (80004e8 <__NVIC_SetPriorityGrouping+0x44>)
 80004b6:	68db      	ldr	r3, [r3, #12]
 80004b8:	60bb      	str	r3, [r7, #8]
  reg_value &= ~((uint32_t)(SCB_AIRCR_VECTKEY_Msk | SCB_AIRCR_PRIGROUP_Msk)); /* clear bits to change               */
 80004ba:	68ba      	ldr	r2, [r7, #8]
 80004bc:	f64f 03ff 	movw	r3, #63743	; 0xf8ff
 80004c0:	4013      	ands	r3, r2
 80004c2:	60bb      	str	r3, [r7, #8]
  reg_value  =  (reg_value                                   |
                ((uint32_t)0x5FAUL << SCB_AIRCR_VECTKEY_Pos) |
                (PriorityGroupTmp << SCB_AIRCR_PRIGROUP_Pos)  );              /* Insert write key and priority group */
 80004c4:	68fb      	ldr	r3, [r7, #12]
 80004c6:	021a      	lsls	r2, r3, #8
                ((uint32_t)0x5FAUL << SCB_AIRCR_VECTKEY_Pos) |
 80004c8:	68bb      	ldr	r3, [r7, #8]
 80004ca:	4313      	orrs	r3, r2
  reg_value  =  (reg_value                                   |
 80004cc:	f043 63bf 	orr.w	r3, r3, #100139008	; 0x5f80000
 80004d0:	f443 3300 	orr.w	r3, r3, #131072	; 0x20000
 80004d4:	60bb      	str	r3, [r7, #8]
  SCB->AIRCR =  reg_value;
 80004d6:	4a04      	ldr	r2, [pc, #16]	; (80004e8 <__NVIC_SetPriorityGrouping+0x44>)
 80004d8:	68bb      	ldr	r3, [r7, #8]
 80004da:	60d3      	str	r3, [r2, #12]
}
 80004dc:	bf00      	nop
 80004de:	3714      	adds	r7, #20
 80004e0:	46bd      	mov	sp, r7
 80004e2:	f85d 7b04 	ldr.w	r7, [sp], #4
 80004e6:	4770      	bx	lr
 80004e8:	e000ed00 	.word	0xe000ed00

080004ec <__NVIC_GetPriorityGrouping>:
  \brief   Get Priority Grouping
  \details Reads the priority grouping field from the NVIC Interrupt Controller.
  \return                Priority grouping field (SCB->AIRCR [10:8] PRIGROUP field).
 */
__STATIC_INLINE uint32_t __NVIC_GetPriorityGrouping(void)
{
 80004ec:	b480      	push	{r7}
 80004ee:	af00      	add	r7, sp, #0
  return ((uint32_t)((SCB->AIRCR & SCB_AIRCR_PRIGROUP_Msk) >> SCB_AIRCR_PRIGROUP_Pos));
 80004f0:	4b04      	ldr	r3, [pc, #16]	; (8000504 <__NVIC_GetPriorityGrouping+0x18>)
 80004f2:	68db      	ldr	r3, [r3, #12]
 80004f4:	0a1b      	lsrs	r3, r3, #8
 80004f6:	f003 0307 	and.w	r3, r3, #7
}
 80004fa:	4618      	mov	r0, r3
 80004fc:	46bd      	mov	sp, r7
 80004fe:	f85d 7b04 	ldr.w	r7, [sp], #4
 8000502:	4770      	bx	lr
 8000504:	e000ed00 	.word	0xe000ed00

08000508 <__NVIC_SetPriority>:
  \param [in]      IRQn  Interrupt number.
  \param [in]  priority  Priority to set.
  \note    The priority cannot be set for every processor exception.
 */
__STATIC_INLINE void __NVIC_SetPriority(IRQn_Type IRQn, uint32_t priority)
{
 8000508:	b480      	push	{r7}
 800050a:	b083      	sub	sp, #12
 800050c:	af00      	add	r7, sp, #0
 800050e:	4603      	mov	r3, r0
 8000510:	6039      	str	r1, [r7, #0]
 8000512:	71fb      	strb	r3, [r7, #7]
  if ((int32_t)(IRQn) >= 0)
 8000514:	f997 3007 	ldrsb.w	r3, [r7, #7]
 8000518:	2b00      	cmp	r3, #0
 800051a:	db0a      	blt.n	8000532 <__NVIC_SetPriority+0x2a>
  {
    NVIC->IP[((uint32_t)IRQn)]               = (uint8_t)((priority << (8U - __NVIC_PRIO_BITS)) & (uint32_t)0xFFUL);
 800051c:	683b      	ldr	r3, [r7, #0]
 800051e:	b2da      	uxtb	r2, r3
 8000520:	490c      	ldr	r1, [pc, #48]	; (8000554 <__NVIC_SetPriority+0x4c>)
 8000522:	f997 3007 	ldrsb.w	r3, [r7, #7]
 8000526:	0112      	lsls	r2, r2, #4
 8000528:	b2d2      	uxtb	r2, r2
 800052a:	440b      	add	r3, r1
 800052c:	f883 2300 	strb.w	r2, [r3, #768]	; 0x300
  }
  else
  {
    SCB->SHP[(((uint32_t)IRQn) & 0xFUL)-4UL] = (uint8_t)((priority << (8U - __NVIC_PRIO_BITS)) & (uint32_t)0xFFUL);
  }
}
 8000530:	e00a      	b.n	8000548 <__NVIC_SetPriority+0x40>
    SCB->SHP[(((uint32_t)IRQn) & 0xFUL)-4UL] = (uint8_t)((priority << (8U - __NVIC_PRIO_BITS)) & (uint32_t)0xFFUL);
 8000532:	683b      	ldr	r3, [r7, #0]
 8000534:	b2da      	uxtb	r2, r3
 8000536:	4908      	ldr	r1, [pc, #32]	; (8000558 <__NVIC_SetPriority+0x50>)
 8000538:	79fb      	ldrb	r3, [r7, #7]
 800053a:	f003 030f 	and.w	r3, r3, #15
 800053e:	3b04      	subs	r3, #4
 8000540:	0112      	lsls	r2, r2, #4
 8000542:	b2d2      	uxtb	r2, r2
 8000544:	440b      	add	r3, r1
 8000546:	761a      	strb	r2, [r3, #24]
}
 8000548:	bf00      	nop
 800054a:	370c      	adds	r7, #12
 800054c:	46bd      	mov	sp, r7
 800054e:	f85d 7b04 	ldr.w	r7, [sp], #4
 8000552:	4770      	bx	lr
 8000554:	e000e100 	.word	0xe000e100
 8000558:	e000ed00 	.word	0xe000ed00

0800055c <NVIC_EncodePriority>:
  \param [in]   PreemptPriority  Preemptive priority value (starting from 0).
  \param [in]       SubPriority  Subpriority value (starting from 0).
  \return                        Encoded priority. Value can be used in the function \ref NVIC_SetPriority().
 */
__STATIC_INLINE uint32_t NVIC_EncodePriority (uint32_t PriorityGroup, uint32_t PreemptPriority, uint32_t SubPriority)
{
 800055c:	b480      	push	{r7}
 800055e:	b089      	sub	sp, #36	; 0x24
 8000560:	af00      	add	r7, sp, #0
 8000562:	60f8      	str	r0, [r7, #12]
 8000564:	60b9      	str	r1, [r7, #8]
 8000566:	607a      	str	r2, [r7, #4]
  uint32_t PriorityGroupTmp = (PriorityGroup & (uint32_t)0x07UL);   /* only values 0..7 are used          */
 8000568:	68fb      	ldr	r3, [r7, #12]
 800056a:	f003 0307 	and.w	r3, r3, #7
 800056e:	61fb      	str	r3, [r7, #28]
  uint32_t PreemptPriorityBits;
  uint32_t SubPriorityBits;

  PreemptPriorityBits = ((7UL - PriorityGroupTmp) > (uint32_t)(__NVIC_PRIO_BITS)) ? (uint32_t)(__NVIC_PRIO_BITS) : (uint32_t)(7UL - PriorityGroupTmp);
 8000570:	69fb      	ldr	r3, [r7, #28]
 8000572:	f1c3 0307 	rsb	r3, r3, #7
 8000576:	2b04      	cmp	r3, #4
 8000578:	bf28      	it	cs
 800057a:	2304      	movcs	r3, #4
 800057c:	61bb      	str	r3, [r7, #24]
  SubPriorityBits     = ((PriorityGroupTmp + (uint32_t)(__NVIC_PRIO_BITS)) < (uint32_t)7UL) ? (uint32_t)0UL : (uint32_t)((PriorityGroupTmp - 7UL) + (uint32_t)(__NVIC_PRIO_BITS));
 800057e:	69fb      	ldr	r3, [r7, #28]
 8000580:	3304      	adds	r3, #4
 8000582:	2b06      	cmp	r3, #6
 8000584:	d902      	bls.n	800058c <NVIC_EncodePriority+0x30>
 8000586:	69fb      	ldr	r3, [r7, #28]
 8000588:	3b03      	subs	r3, #3
 800058a:	e000      	b.n	800058e <NVIC_EncodePriority+0x32>
 800058c:	2300      	movs	r3, #0
 800058e:	617b      	str	r3, [r7, #20]

  return (
           ((PreemptPriority & (uint32_t)((1UL << (PreemptPriorityBits)) - 1UL)) << SubPriorityBits) |
 8000590:	f04f 32ff 	mov.w	r2, #4294967295	; 0xffffffff
 8000594:	69bb      	ldr	r3, [r7, #24]
 8000596:	fa02 f303 	lsl.w	r3, r2, r3
 800059a:	43da      	mvns	r2, r3
 800059c:	68bb      	ldr	r3, [r7, #8]
 800059e:	401a      	ands	r2, r3
 80005a0:	697b      	ldr	r3, [r7, #20]
 80005a2:	409a      	lsls	r2, r3
           ((SubPriority     & (uint32_t)((1UL << (SubPriorityBits    )) - 1UL)))
 80005a4:	f04f 31ff 	mov.w	r1, #4294967295	; 0xffffffff
 80005a8:	697b      	ldr	r3, [r7, #20]
 80005aa:	fa01 f303 	lsl.w	r3, r1, r3
 80005ae:	43d9      	mvns	r1, r3
 80005b0:	687b      	ldr	r3, [r7, #4]
 80005b2:	400b      	ands	r3, r1
           ((PreemptPriority & (uint32_t)((1UL << (PreemptPriorityBits)) - 1UL)) << SubPriorityBits) |
 80005b4:	4313      	orrs	r3, r2
         );
}
 80005b6:	4618      	mov	r0, r3
 80005b8:	3724      	adds	r7, #36	; 0x24
 80005ba:	46bd      	mov	sp, r7
 80005bc:	f85d 7b04 	ldr.w	r7, [sp], #4
 80005c0:	4770      	bx	lr
	...

080005c4 <SysTick_Config>:
  \note    When the variable <b>__Vendor_SysTickConfig</b> is set to 1, then the
           function <b>SysTick_Config</b> is not included. In this case, the file <b><i>device</i>.h</b>
           must contain a vendor-specific implementation of this function.
 */
__STATIC_INLINE uint32_t SysTick_Config(uint32_t ticks)
{
 80005c4:	b580      	push	{r7, lr}
 80005c6:	b082      	sub	sp, #8
 80005c8:	af00      	add	r7, sp, #0
 80005ca:	6078      	str	r0, [r7, #4]
  if ((ticks - 1UL) > SysTick_LOAD_RELOAD_Msk)
 80005cc:	687b      	ldr	r3, [r7, #4]
 80005ce:	3b01      	subs	r3, #1
 80005d0:	f1b3 7f80 	cmp.w	r3, #16777216	; 0x1000000
 80005d4:	d301      	bcc.n	80005da <SysTick_Config+0x16>
  {
    return (1UL);                                                   /* Reload value impossible */
 80005d6:	2301      	movs	r3, #1
 80005d8:	e00f      	b.n	80005fa <SysTick_Config+0x36>
  }

  SysTick->LOAD  = (uint32_t)(ticks - 1UL);                         /* set reload register */
 80005da:	4a0a      	ldr	r2, [pc, #40]	; (8000604 <SysTick_Config+0x40>)
 80005dc:	687b      	ldr	r3, [r7, #4]
 80005de:	3b01      	subs	r3, #1
 80005e0:	6053      	str	r3, [r2, #4]
  NVIC_SetPriority (SysTick_IRQn, (1UL << __NVIC_PRIO_BITS) - 1UL); /* set Priority for Systick Interrupt */
 80005e2:	210f      	movs	r1, #15
 80005e4:	f04f 30ff 	mov.w	r0, #4294967295	; 0xffffffff
 80005e8:	f7ff ff8e 	bl	8000508 <__NVIC_SetPriority>
  SysTick->VAL   = 0UL;                                             /* Load the SysTick Counter Value */
 80005ec:	4b05      	ldr	r3, [pc, #20]	; (8000604 <SysTick_Config+0x40>)
 80005ee:	2200      	movs	r2, #0
 80005f0:	609a      	str	r2, [r3, #8]
  SysTick->CTRL  = SysTick_CTRL_CLKSOURCE_Msk |
 80005f2:	4b04      	ldr	r3, [pc, #16]	; (8000604 <SysTick_Config+0x40>)
 80005f4:	2207      	movs	r2, #7
 80005f6:	601a      	str	r2, [r3, #0]
                   SysTick_CTRL_TICKINT_Msk   |
                   SysTick_CTRL_ENABLE_Msk;                         /* Enable SysTick IRQ and SysTick Timer */
  return (0UL);                                                     /* Function successful */
 80005f8:	2300      	movs	r3, #0
}
 80005fa:	4618      	mov	r0, r3
 80005fc:	3708      	adds	r7, #8
 80005fe:	46bd      	mov	sp, r7
 8000600:	bd80      	pop	{r7, pc}
 8000602:	bf00      	nop
 8000604:	e000e010 	.word	0xe000e010

08000608 <HAL_NVIC_SetPriorityGrouping>:
  * @note   When the NVIC_PriorityGroup_0 is selected, IRQ pre-emption is no more possible.
  *         The pending IRQ priority will be managed only by the subpriority.
  * @retval None
  */
void HAL_NVIC_SetPriorityGrouping(uint32_t PriorityGroup)
{
 8000608:	b580      	push	{r7, lr}
 800060a:	b082      	sub	sp, #8
 800060c:	af00      	add	r7, sp, #0
 800060e:	6078      	str	r0, [r7, #4]
  /* Check the parameters */
  assert_param(IS_NVIC_PRIORITY_GROUP(PriorityGroup));

  /* Set the PRIGROUP[10:8] bits according to the PriorityGroup parameter value */
  NVIC_SetPriorityGrouping(PriorityGroup);
 8000610:	6878      	ldr	r0, [r7, #4]
 8000612:	f7ff ff47 	bl	80004a4 <__NVIC_SetPriorityGrouping>
}
 8000616:	bf00      	nop
 8000618:	3708      	adds	r7, #8
 800061a:	46bd      	mov	sp, r7
 800061c:	bd80      	pop	{r7, pc}

0800061e <HAL_NVIC_SetPriority>:
  *         This parameter can be a value between 0 and 15
  *         A lower priority value indicates a higher priority.
  * @retval None
  */
void HAL_NVIC_SetPriority(IRQn_Type IRQn, uint32_t PreemptPriority, uint32_t SubPriority)
{
 800061e:	b580      	push	{r7, lr}
 8000620:	b086      	sub	sp, #24
 8000622:	af00      	add	r7, sp, #0
 8000624:	4603      	mov	r3, r0
 8000626:	60b9      	str	r1, [r7, #8]
 8000628:	607a      	str	r2, [r7, #4]
 800062a:	73fb      	strb	r3, [r7, #15]

  /* Check the parameters */
  assert_param(IS_NVIC_SUB_PRIORITY(SubPriority));
  assert_param(IS_NVIC_PREEMPTION_PRIORITY(PreemptPriority));

  prioritygroup = NVIC_GetPriorityGrouping();
 800062c:	f7ff ff5e 	bl	80004ec <__NVIC_GetPriorityGrouping>
 8000630:	6178      	str	r0, [r7, #20]

  NVIC_SetPriority(IRQn, NVIC_EncodePriority(prioritygroup, PreemptPriority, SubPriority));
 8000632:	687a      	ldr	r2, [r7, #4]
 8000634:	68b9      	ldr	r1, [r7, #8]
 8000636:	6978      	ldr	r0, [r7, #20]
 8000638:	f7ff ff90 	bl	800055c <NVIC_EncodePriority>
 800063c:	4602      	mov	r2, r0
 800063e:	f997 300f 	ldrsb.w	r3, [r7, #15]
 8000642:	4611      	mov	r1, r2
 8000644:	4618      	mov	r0, r3
 8000646:	f7ff ff5f 	bl	8000508 <__NVIC_SetPriority>
}
 800064a:	bf00      	nop
 800064c:	3718      	adds	r7, #24
 800064e:	46bd      	mov	sp, r7
 8000650:	bd80      	pop	{r7, pc}

08000652 <HAL_SYSTICK_Config>:
  * @param  TicksNumb: Specifies the ticks Number of ticks between two interrupts.
  * @retval status:  - 0  Function succeeded.
  *                  - 1  Function failed.
  */
uint32_t HAL_SYSTICK_Config(uint32_t TicksNumb)
{
 8000652:	b580      	push	{r7, lr}
 8000654:	b082      	sub	sp, #8
 8000656:	af00      	add	r7, sp, #0
 8000658:	6078      	str	r0, [r7, #4]
   return SysTick_Config(TicksNumb);
 800065a:	6878      	ldr	r0, [r7, #4]
 800065c:	f7ff ffb2 	bl	80005c4 <SysTick_Config>
 8000660:	4603      	mov	r3, r0
}
 8000662:	4618      	mov	r0, r3
 8000664:	3708      	adds	r7, #8
 8000666:	46bd      	mov	sp, r7
 8000668:	bd80      	pop	{r7, pc}
	...

0800066c <HAL_PWREx_ControlVoltageScaling>:
  *        cleared before returning the status. If the flag is not cleared within
  *        50 microseconds, HAL_TIMEOUT status is reported.
  * @retval HAL Status
  */
HAL_StatusTypeDef HAL_PWREx_ControlVoltageScaling(uint32_t VoltageScaling)
{
 800066c:	b480      	push	{r7}
 800066e:	b085      	sub	sp, #20
 8000670:	af00      	add	r7, sp, #0
 8000672:	6078      	str	r0, [r7, #4]
  uint32_t wait_loop_index;

  assert_param(IS_PWR_VOLTAGE_SCALING_RANGE(VoltageScaling));

  if (VoltageScaling == PWR_REGULATOR_VOLTAGE_SCALE1_BOOST)
 8000674:	687b      	ldr	r3, [r7, #4]
 8000676:	2b00      	cmp	r3, #0
 8000678:	d141      	bne.n	80006fe <HAL_PWREx_ControlVoltageScaling+0x92>
  {
    /* If current range is range 2 */
    if (READ_BIT(PWR->CR1, PWR_CR1_VOS) == PWR_REGULATOR_VOLTAGE_SCALE2)
 800067a:	4b4b      	ldr	r3, [pc, #300]	; (80007a8 <HAL_PWREx_ControlVoltageScaling+0x13c>)
 800067c:	681b      	ldr	r3, [r3, #0]
 800067e:	f403 63c0 	and.w	r3, r3, #1536	; 0x600
 8000682:	f5b3 6f80 	cmp.w	r3, #1024	; 0x400
 8000686:	d131      	bne.n	80006ec <HAL_PWREx_ControlVoltageScaling+0x80>
    {
      /* Make sure Range 1 Boost is enabled */
      CLEAR_BIT(PWR->CR5, PWR_CR5_R1MODE);
 8000688:	4b47      	ldr	r3, [pc, #284]	; (80007a8 <HAL_PWREx_ControlVoltageScaling+0x13c>)
 800068a:	f8d3 3080 	ldr.w	r3, [r3, #128]	; 0x80
 800068e:	4a46      	ldr	r2, [pc, #280]	; (80007a8 <HAL_PWREx_ControlVoltageScaling+0x13c>)
 8000690:	f423 7380 	bic.w	r3, r3, #256	; 0x100
 8000694:	f8c2 3080 	str.w	r3, [r2, #128]	; 0x80

      /* Set Range 1 */
      MODIFY_REG(PWR->CR1, PWR_CR1_VOS, PWR_REGULATOR_VOLTAGE_SCALE1);
 8000698:	4b43      	ldr	r3, [pc, #268]	; (80007a8 <HAL_PWREx_ControlVoltageScaling+0x13c>)
 800069a:	681b      	ldr	r3, [r3, #0]
 800069c:	f423 63c0 	bic.w	r3, r3, #1536	; 0x600
 80006a0:	4a41      	ldr	r2, [pc, #260]	; (80007a8 <HAL_PWREx_ControlVoltageScaling+0x13c>)
 80006a2:	f443 7300 	orr.w	r3, r3, #512	; 0x200
 80006a6:	6013      	str	r3, [r2, #0]

      /* Wait until VOSF is cleared */
      wait_loop_index = ((PWR_FLAG_SETTING_DELAY_US * SystemCoreClock) / 1000000U) + 1U;
 80006a8:	4b40      	ldr	r3, [pc, #256]	; (80007ac <HAL_PWREx_ControlVoltageScaling+0x140>)
 80006aa:	681b      	ldr	r3, [r3, #0]
 80006ac:	2232      	movs	r2, #50	; 0x32
 80006ae:	fb02 f303 	mul.w	r3, r2, r3
 80006b2:	4a3f      	ldr	r2, [pc, #252]	; (80007b0 <HAL_PWREx_ControlVoltageScaling+0x144>)
 80006b4:	fba2 2303 	umull	r2, r3, r2, r3
 80006b8:	0c9b      	lsrs	r3, r3, #18
 80006ba:	3301      	adds	r3, #1
 80006bc:	60fb      	str	r3, [r7, #12]
      while ((HAL_IS_BIT_SET(PWR->SR2, PWR_SR2_VOSF)) && (wait_loop_index != 0U))
 80006be:	e002      	b.n	80006c6 <HAL_PWREx_ControlVoltageScaling+0x5a>
      {
        wait_loop_index--;
 80006c0:	68fb      	ldr	r3, [r7, #12]
 80006c2:	3b01      	subs	r3, #1
 80006c4:	60fb      	str	r3, [r7, #12]
      while ((HAL_IS_BIT_SET(PWR->SR2, PWR_SR2_VOSF)) && (wait_loop_index != 0U))
 80006c6:	4b38      	ldr	r3, [pc, #224]	; (80007a8 <HAL_PWREx_ControlVoltageScaling+0x13c>)
 80006c8:	695b      	ldr	r3, [r3, #20]
 80006ca:	f403 6380 	and.w	r3, r3, #1024	; 0x400
 80006ce:	f5b3 6f80 	cmp.w	r3, #1024	; 0x400
 80006d2:	d102      	bne.n	80006da <HAL_PWREx_ControlVoltageScaling+0x6e>
 80006d4:	68fb      	ldr	r3, [r7, #12]
 80006d6:	2b00      	cmp	r3, #0
 80006d8:	d1f2      	bne.n	80006c0 <HAL_PWREx_ControlVoltageScaling+0x54>
      }
      if (HAL_IS_BIT_SET(PWR->SR2, PWR_SR2_VOSF))
 80006da:	4b33      	ldr	r3, [pc, #204]	; (80007a8 <HAL_PWREx_ControlVoltageScaling+0x13c>)
 80006dc:	695b      	ldr	r3, [r3, #20]
 80006de:	f403 6380 	and.w	r3, r3, #1024	; 0x400
 80006e2:	f5b3 6f80 	cmp.w	r3, #1024	; 0x400
 80006e6:	d158      	bne.n	800079a <HAL_PWREx_ControlVoltageScaling+0x12e>
      {
        return HAL_TIMEOUT;
 80006e8:	2303      	movs	r3, #3
 80006ea:	e057      	b.n	800079c <HAL_PWREx_ControlVoltageScaling+0x130>
    }
    /* If current range is range 1 normal or boost mode */
    else
    {
      /* Enable Range 1 Boost (no issue if bit already reset) */
      CLEAR_BIT(PWR->CR5, PWR_CR5_R1MODE);
 80006ec:	4b2e      	ldr	r3, [pc, #184]	; (80007a8 <HAL_PWREx_ControlVoltageScaling+0x13c>)
 80006ee:	f8d3 3080 	ldr.w	r3, [r3, #128]	; 0x80
 80006f2:	4a2d      	ldr	r2, [pc, #180]	; (80007a8 <HAL_PWREx_ControlVoltageScaling+0x13c>)
 80006f4:	f423 7380 	bic.w	r3, r3, #256	; 0x100
 80006f8:	f8c2 3080 	str.w	r3, [r2, #128]	; 0x80
 80006fc:	e04d      	b.n	800079a <HAL_PWREx_ControlVoltageScaling+0x12e>
    }
  }
  else if (VoltageScaling == PWR_REGULATOR_VOLTAGE_SCALE1)
 80006fe:	687b      	ldr	r3, [r7, #4]
 8000700:	f5b3 7f00 	cmp.w	r3, #512	; 0x200
 8000704:	d141      	bne.n	800078a <HAL_PWREx_ControlVoltageScaling+0x11e>
  {
    /* If current range is range 2 */
    if (READ_BIT(PWR->CR1, PWR_CR1_VOS) == PWR_REGULATOR_VOLTAGE_SCALE2)
 8000706:	4b28      	ldr	r3, [pc, #160]	; (80007a8 <HAL_PWREx_ControlVoltageScaling+0x13c>)
 8000708:	681b      	ldr	r3, [r3, #0]
 800070a:	f403 63c0 	and.w	r3, r3, #1536	; 0x600
 800070e:	f5b3 6f80 	cmp.w	r3, #1024	; 0x400
 8000712:	d131      	bne.n	8000778 <HAL_PWREx_ControlVoltageScaling+0x10c>
    {
      /* Make sure Range 1 Boost is disabled */
      SET_BIT(PWR->CR5, PWR_CR5_R1MODE);
 8000714:	4b24      	ldr	r3, [pc, #144]	; (80007a8 <HAL_PWREx_ControlVoltageScaling+0x13c>)
 8000716:	f8d3 3080 	ldr.w	r3, [r3, #128]	; 0x80
 800071a:	4a23      	ldr	r2, [pc, #140]	; (80007a8 <HAL_PWREx_ControlVoltageScaling+0x13c>)
 800071c:	f443 7380 	orr.w	r3, r3, #256	; 0x100
 8000720:	f8c2 3080 	str.w	r3, [r2, #128]	; 0x80

      /* Set Range 1 */
      MODIFY_REG(PWR->CR1, PWR_CR1_VOS, PWR_REGULATOR_VOLTAGE_SCALE1);
 8000724:	4b20      	ldr	r3, [pc, #128]	; (80007a8 <HAL_PWREx_ControlVoltageScaling+0x13c>)
 8000726:	681b      	ldr	r3, [r3, #0]
 8000728:	f423 63c0 	bic.w	r3, r3, #1536	; 0x600
 800072c:	4a1e      	ldr	r2, [pc, #120]	; (80007a8 <HAL_PWREx_ControlVoltageScaling+0x13c>)
 800072e:	f443 7300 	orr.w	r3, r3, #512	; 0x200
 8000732:	6013      	str	r3, [r2, #0]

      /* Wait until VOSF is cleared */
      wait_loop_index = ((PWR_FLAG_SETTING_DELAY_US * SystemCoreClock) / 1000000U) + 1U;
 8000734:	4b1d      	ldr	r3, [pc, #116]	; (80007ac <HAL_PWREx_ControlVoltageScaling+0x140>)
 8000736:	681b      	ldr	r3, [r3, #0]
 8000738:	2232      	movs	r2, #50	; 0x32
 800073a:	fb02 f303 	mul.w	r3, r2, r3
 800073e:	4a1c      	ldr	r2, [pc, #112]	; (80007b0 <HAL_PWREx_ControlVoltageScaling+0x144>)
 8000740:	fba2 2303 	umull	r2, r3, r2, r3
 8000744:	0c9b      	lsrs	r3, r3, #18
 8000746:	3301      	adds	r3, #1
 8000748:	60fb      	str	r3, [r7, #12]
      while ((HAL_IS_BIT_SET(PWR->SR2, PWR_SR2_VOSF)) && (wait_loop_index != 0U))
 800074a:	e002      	b.n	8000752 <HAL_PWREx_ControlVoltageScaling+0xe6>
      {
        wait_loop_index--;
 800074c:	68fb      	ldr	r3, [r7, #12]
 800074e:	3b01      	subs	r3, #1
 8000750:	60fb      	str	r3, [r7, #12]
      while ((HAL_IS_BIT_SET(PWR->SR2, PWR_SR2_VOSF)) && (wait_loop_index != 0U))
 8000752:	4b15      	ldr	r3, [pc, #84]	; (80007a8 <HAL_PWREx_ControlVoltageScaling+0x13c>)
 8000754:	695b      	ldr	r3, [r3, #20]
 8000756:	f403 6380 	and.w	r3, r3, #1024	; 0x400
 800075a:	f5b3 6f80 	cmp.w	r3, #1024	; 0x400
 800075e:	d102      	bne.n	8000766 <HAL_PWREx_ControlVoltageScaling+0xfa>
 8000760:	68fb      	ldr	r3, [r7, #12]
 8000762:	2b00      	cmp	r3, #0
 8000764:	d1f2      	bne.n	800074c <HAL_PWREx_ControlVoltageScaling+0xe0>
      }
      if (HAL_IS_BIT_SET(PWR->SR2, PWR_SR2_VOSF))
 8000766:	4b10      	ldr	r3, [pc, #64]	; (80007a8 <HAL_PWREx_ControlVoltageScaling+0x13c>)
 8000768:	695b      	ldr	r3, [r3, #20]
 800076a:	f403 6380 	and.w	r3, r3, #1024	; 0x400
 800076e:	f5b3 6f80 	cmp.w	r3, #1024	; 0x400
 8000772:	d112      	bne.n	800079a <HAL_PWREx_ControlVoltageScaling+0x12e>
      {
        return HAL_TIMEOUT;
 8000774:	2303      	movs	r3, #3
 8000776:	e011      	b.n	800079c <HAL_PWREx_ControlVoltageScaling+0x130>
    }
     /* If current range is range 1 normal or boost mode */
    else
    {
      /* Disable Range 1 Boost (no issue if bit already set) */
      SET_BIT(PWR->CR5, PWR_CR5_R1MODE);
 8000778:	4b0b      	ldr	r3, [pc, #44]	; (80007a8 <HAL_PWREx_ControlVoltageScaling+0x13c>)
 800077a:	f8d3 3080 	ldr.w	r3, [r3, #128]	; 0x80
 800077e:	4a0a      	ldr	r2, [pc, #40]	; (80007a8 <HAL_PWREx_ControlVoltageScaling+0x13c>)
 8000780:	f443 7380 	orr.w	r3, r3, #256	; 0x100
 8000784:	f8c2 3080 	str.w	r3, [r2, #128]	; 0x80
 8000788:	e007      	b.n	800079a <HAL_PWREx_ControlVoltageScaling+0x12e>
    }
  }
  else
  {
    /* Set Range 2 */
    MODIFY_REG(PWR->CR1, PWR_CR1_VOS, PWR_REGULATOR_VOLTAGE_SCALE2);
 800078a:	4b07      	ldr	r3, [pc, #28]	; (80007a8 <HAL_PWREx_ControlVoltageScaling+0x13c>)
 800078c:	681b      	ldr	r3, [r3, #0]
 800078e:	f423 63c0 	bic.w	r3, r3, #1536	; 0x600
 8000792:	4a05      	ldr	r2, [pc, #20]	; (80007a8 <HAL_PWREx_ControlVoltageScaling+0x13c>)
 8000794:	f443 6380 	orr.w	r3, r3, #1024	; 0x400
 8000798:	6013      	str	r3, [r2, #0]
    /* No need to wait for VOSF to be cleared for this transition */
    /* PWR_CR5_R1MODE bit setting has no effect in Range 2        */
  }

  return HAL_OK;
 800079a:	2300      	movs	r3, #0
}
 800079c:	4618      	mov	r0, r3
 800079e:	3714      	adds	r7, #20
 80007a0:	46bd      	mov	sp, r7
 80007a2:	f85d 7b04 	ldr.w	r7, [sp], #4
 80007a6:	4770      	bx	lr
 80007a8:	40007000 	.word	0x40007000
 80007ac:	20000000 	.word	0x20000000
 80007b0:	431bde83 	.word	0x431bde83

080007b4 <HAL_RCC_OscConfig>:
  *         supported by this macro. User should request a transition to HSE Off
  *         first and then HSE On or HSE Bypass.
  * @retval HAL status
  */
HAL_StatusTypeDef HAL_RCC_OscConfig(RCC_OscInitTypeDef  *RCC_OscInitStruct)
{
 80007b4:	b580      	push	{r7, lr}
 80007b6:	b088      	sub	sp, #32
 80007b8:	af00      	add	r7, sp, #0
 80007ba:	6078      	str	r0, [r7, #4]
  uint32_t tickstart;
  uint32_t temp_sysclksrc;
  uint32_t temp_pllckcfg;

  /* Check Null pointer */
  if (RCC_OscInitStruct == NULL)
 80007bc:	687b      	ldr	r3, [r7, #4]
 80007be:	2b00      	cmp	r3, #0
 80007c0:	d101      	bne.n	80007c6 <HAL_RCC_OscConfig+0x12>
  {
    return HAL_ERROR;
 80007c2:	2301      	movs	r3, #1
 80007c4:	e306      	b.n	8000dd4 <HAL_RCC_OscConfig+0x620>

  /* Check the parameters */
  assert_param(IS_RCC_OSCILLATORTYPE(RCC_OscInitStruct->OscillatorType));

  /*------------------------------- HSE Configuration ------------------------*/
  if (((RCC_OscInitStruct->OscillatorType) & RCC_OSCILLATORTYPE_HSE) == RCC_OSCILLATORTYPE_HSE)
 80007c6:	687b      	ldr	r3, [r7, #4]
 80007c8:	681b      	ldr	r3, [r3, #0]
 80007ca:	f003 0301 	and.w	r3, r3, #1
 80007ce:	2b00      	cmp	r3, #0
 80007d0:	d075      	beq.n	80008be <HAL_RCC_OscConfig+0x10a>
  {
    /* Check the parameters */
    assert_param(IS_RCC_HSE(RCC_OscInitStruct->HSEState));

    temp_sysclksrc = __HAL_RCC_GET_SYSCLK_SOURCE();
 80007d2:	4b97      	ldr	r3, [pc, #604]	; (8000a30 <HAL_RCC_OscConfig+0x27c>)
 80007d4:	689b      	ldr	r3, [r3, #8]
 80007d6:	f003 030c 	and.w	r3, r3, #12
 80007da:	61bb      	str	r3, [r7, #24]
    temp_pllckcfg = __HAL_RCC_GET_PLL_OSCSOURCE();
 80007dc:	4b94      	ldr	r3, [pc, #592]	; (8000a30 <HAL_RCC_OscConfig+0x27c>)
 80007de:	68db      	ldr	r3, [r3, #12]
 80007e0:	f003 0303 	and.w	r3, r3, #3
 80007e4:	617b      	str	r3, [r7, #20]

    /* When the HSE is used as system clock or clock source for PLL in these cases it is not allowed to be disabled */
    if (((temp_sysclksrc == RCC_CFGR_SWS_PLL) && (temp_pllckcfg == RCC_PLLSOURCE_HSE)) || (temp_sysclksrc == RCC_CFGR_SWS_HSE))
 80007e6:	69bb      	ldr	r3, [r7, #24]
 80007e8:	2b0c      	cmp	r3, #12
 80007ea:	d102      	bne.n	80007f2 <HAL_RCC_OscConfig+0x3e>
 80007ec:	697b      	ldr	r3, [r7, #20]
 80007ee:	2b03      	cmp	r3, #3
 80007f0:	d002      	beq.n	80007f8 <HAL_RCC_OscConfig+0x44>
 80007f2:	69bb      	ldr	r3, [r7, #24]
 80007f4:	2b08      	cmp	r3, #8
 80007f6:	d10b      	bne.n	8000810 <HAL_RCC_OscConfig+0x5c>
    {
      if ((READ_BIT(RCC->CR, RCC_CR_HSERDY) != 0U) && (RCC_OscInitStruct->HSEState == RCC_HSE_OFF))
 80007f8:	4b8d      	ldr	r3, [pc, #564]	; (8000a30 <HAL_RCC_OscConfig+0x27c>)
 80007fa:	681b      	ldr	r3, [r3, #0]
 80007fc:	f403 3300 	and.w	r3, r3, #131072	; 0x20000
 8000800:	2b00      	cmp	r3, #0
 8000802:	d05b      	beq.n	80008bc <HAL_RCC_OscConfig+0x108>
 8000804:	687b      	ldr	r3, [r7, #4]
 8000806:	685b      	ldr	r3, [r3, #4]
 8000808:	2b00      	cmp	r3, #0
 800080a:	d157      	bne.n	80008bc <HAL_RCC_OscConfig+0x108>
      {
        return HAL_ERROR;
 800080c:	2301      	movs	r3, #1
 800080e:	e2e1      	b.n	8000dd4 <HAL_RCC_OscConfig+0x620>
      }
    }
    else
    {
      /* Set the new HSE configuration ---------------------------------------*/
      __HAL_RCC_HSE_CONFIG(RCC_OscInitStruct->HSEState);
 8000810:	687b      	ldr	r3, [r7, #4]
 8000812:	685b      	ldr	r3, [r3, #4]
 8000814:	f5b3 3f80 	cmp.w	r3, #65536	; 0x10000
 8000818:	d106      	bne.n	8000828 <HAL_RCC_OscConfig+0x74>
 800081a:	4b85      	ldr	r3, [pc, #532]	; (8000a30 <HAL_RCC_OscConfig+0x27c>)
 800081c:	681b      	ldr	r3, [r3, #0]
 800081e:	4a84      	ldr	r2, [pc, #528]	; (8000a30 <HAL_RCC_OscConfig+0x27c>)
 8000820:	f443 3380 	orr.w	r3, r3, #65536	; 0x10000
 8000824:	6013      	str	r3, [r2, #0]
 8000826:	e01d      	b.n	8000864 <HAL_RCC_OscConfig+0xb0>
 8000828:	687b      	ldr	r3, [r7, #4]
 800082a:	685b      	ldr	r3, [r3, #4]
 800082c:	f5b3 2fa0 	cmp.w	r3, #327680	; 0x50000
 8000830:	d10c      	bne.n	800084c <HAL_RCC_OscConfig+0x98>
 8000832:	4b7f      	ldr	r3, [pc, #508]	; (8000a30 <HAL_RCC_OscConfig+0x27c>)
 8000834:	681b      	ldr	r3, [r3, #0]
 8000836:	4a7e      	ldr	r2, [pc, #504]	; (8000a30 <HAL_RCC_OscConfig+0x27c>)
 8000838:	f443 2380 	orr.w	r3, r3, #262144	; 0x40000
 800083c:	6013      	str	r3, [r2, #0]
 800083e:	4b7c      	ldr	r3, [pc, #496]	; (8000a30 <HAL_RCC_OscConfig+0x27c>)
 8000840:	681b      	ldr	r3, [r3, #0]
 8000842:	4a7b      	ldr	r2, [pc, #492]	; (8000a30 <HAL_RCC_OscConfig+0x27c>)
 8000844:	f443 3380 	orr.w	r3, r3, #65536	; 0x10000
 8000848:	6013      	str	r3, [r2, #0]
 800084a:	e00b      	b.n	8000864 <HAL_RCC_OscConfig+0xb0>
 800084c:	4b78      	ldr	r3, [pc, #480]	; (8000a30 <HAL_RCC_OscConfig+0x27c>)
 800084e:	681b      	ldr	r3, [r3, #0]
 8000850:	4a77      	ldr	r2, [pc, #476]	; (8000a30 <HAL_RCC_OscConfig+0x27c>)
 8000852:	f423 3380 	bic.w	r3, r3, #65536	; 0x10000
 8000856:	6013      	str	r3, [r2, #0]
 8000858:	4b75      	ldr	r3, [pc, #468]	; (8000a30 <HAL_RCC_OscConfig+0x27c>)
 800085a:	681b      	ldr	r3, [r3, #0]
 800085c:	4a74      	ldr	r2, [pc, #464]	; (8000a30 <HAL_RCC_OscConfig+0x27c>)
 800085e:	f423 2380 	bic.w	r3, r3, #262144	; 0x40000
 8000862:	6013      	str	r3, [r2, #0]

      /* Check the HSE State */
      if (RCC_OscInitStruct->HSEState != RCC_HSE_OFF)
 8000864:	687b      	ldr	r3, [r7, #4]
 8000866:	685b      	ldr	r3, [r3, #4]
 8000868:	2b00      	cmp	r3, #0
 800086a:	d013      	beq.n	8000894 <HAL_RCC_OscConfig+0xe0>
      {
        /* Get Start Tick*/
        tickstart = HAL_GetTick();
 800086c:	f7ff fe0e 	bl	800048c <HAL_GetTick>
 8000870:	6138      	str	r0, [r7, #16]

        /* Wait till HSE is ready */
        while (READ_BIT(RCC->CR, RCC_CR_HSERDY) == 0U)
 8000872:	e008      	b.n	8000886 <HAL_RCC_OscConfig+0xd2>
        {
          if ((HAL_GetTick() - tickstart) > HSE_TIMEOUT_VALUE)
 8000874:	f7ff fe0a 	bl	800048c <HAL_GetTick>
 8000878:	4602      	mov	r2, r0
 800087a:	693b      	ldr	r3, [r7, #16]
 800087c:	1ad3      	subs	r3, r2, r3
 800087e:	2b64      	cmp	r3, #100	; 0x64
 8000880:	d901      	bls.n	8000886 <HAL_RCC_OscConfig+0xd2>
          {
            return HAL_TIMEOUT;
 8000882:	2303      	movs	r3, #3
 8000884:	e2a6      	b.n	8000dd4 <HAL_RCC_OscConfig+0x620>
        while (READ_BIT(RCC->CR, RCC_CR_HSERDY) == 0U)
 8000886:	4b6a      	ldr	r3, [pc, #424]	; (8000a30 <HAL_RCC_OscConfig+0x27c>)
 8000888:	681b      	ldr	r3, [r3, #0]
 800088a:	f403 3300 	and.w	r3, r3, #131072	; 0x20000
 800088e:	2b00      	cmp	r3, #0
 8000890:	d0f0      	beq.n	8000874 <HAL_RCC_OscConfig+0xc0>
 8000892:	e014      	b.n	80008be <HAL_RCC_OscConfig+0x10a>
        }
      }
      else
      {
        /* Get Start Tick*/
        tickstart = HAL_GetTick();
 8000894:	f7ff fdfa 	bl	800048c <HAL_GetTick>
 8000898:	6138      	str	r0, [r7, #16]

        /* Wait till HSE is disabled */
        while (READ_BIT(RCC->CR, RCC_CR_HSERDY) != 0U)
 800089a:	e008      	b.n	80008ae <HAL_RCC_OscConfig+0xfa>
        {
          if ((HAL_GetTick() - tickstart) > HSE_TIMEOUT_VALUE)
 800089c:	f7ff fdf6 	bl	800048c <HAL_GetTick>
 80008a0:	4602      	mov	r2, r0
 80008a2:	693b      	ldr	r3, [r7, #16]
 80008a4:	1ad3      	subs	r3, r2, r3
 80008a6:	2b64      	cmp	r3, #100	; 0x64
 80008a8:	d901      	bls.n	80008ae <HAL_RCC_OscConfig+0xfa>
          {
            return HAL_TIMEOUT;
 80008aa:	2303      	movs	r3, #3
 80008ac:	e292      	b.n	8000dd4 <HAL_RCC_OscConfig+0x620>
        while (READ_BIT(RCC->CR, RCC_CR_HSERDY) != 0U)
 80008ae:	4b60      	ldr	r3, [pc, #384]	; (8000a30 <HAL_RCC_OscConfig+0x27c>)
 80008b0:	681b      	ldr	r3, [r3, #0]
 80008b2:	f403 3300 	and.w	r3, r3, #131072	; 0x20000
 80008b6:	2b00      	cmp	r3, #0
 80008b8:	d1f0      	bne.n	800089c <HAL_RCC_OscConfig+0xe8>
 80008ba:	e000      	b.n	80008be <HAL_RCC_OscConfig+0x10a>
      if ((READ_BIT(RCC->CR, RCC_CR_HSERDY) != 0U) && (RCC_OscInitStruct->HSEState == RCC_HSE_OFF))
 80008bc:	bf00      	nop
        }
      }
    }
  }
  /*----------------------------- HSI Configuration --------------------------*/
  if (((RCC_OscInitStruct->OscillatorType) & RCC_OSCILLATORTYPE_HSI) == RCC_OSCILLATORTYPE_HSI)
 80008be:	687b      	ldr	r3, [r7, #4]
 80008c0:	681b      	ldr	r3, [r3, #0]
 80008c2:	f003 0302 	and.w	r3, r3, #2
 80008c6:	2b00      	cmp	r3, #0
 80008c8:	d075      	beq.n	80009b6 <HAL_RCC_OscConfig+0x202>
    /* Check the parameters */
    assert_param(IS_RCC_HSI(RCC_OscInitStruct->HSIState));
    assert_param(IS_RCC_HSI_CALIBRATION_VALUE(RCC_OscInitStruct->HSICalibrationValue));

    /* Check if HSI is used as system clock or as PLL source when PLL is selected as system clock */
    temp_sysclksrc = __HAL_RCC_GET_SYSCLK_SOURCE();
 80008ca:	4b59      	ldr	r3, [pc, #356]	; (8000a30 <HAL_RCC_OscConfig+0x27c>)
 80008cc:	689b      	ldr	r3, [r3, #8]
 80008ce:	f003 030c 	and.w	r3, r3, #12
 80008d2:	61bb      	str	r3, [r7, #24]
    temp_pllckcfg = __HAL_RCC_GET_PLL_OSCSOURCE();
 80008d4:	4b56      	ldr	r3, [pc, #344]	; (8000a30 <HAL_RCC_OscConfig+0x27c>)
 80008d6:	68db      	ldr	r3, [r3, #12]
 80008d8:	f003 0303 	and.w	r3, r3, #3
 80008dc:	617b      	str	r3, [r7, #20]
    if (((temp_sysclksrc == RCC_CFGR_SWS_PLL) && (temp_pllckcfg == RCC_PLLSOURCE_HSI)) || (temp_sysclksrc == RCC_CFGR_SWS_HSI))
 80008de:	69bb      	ldr	r3, [r7, #24]
 80008e0:	2b0c      	cmp	r3, #12
 80008e2:	d102      	bne.n	80008ea <HAL_RCC_OscConfig+0x136>
 80008e4:	697b      	ldr	r3, [r7, #20]
 80008e6:	2b02      	cmp	r3, #2
 80008e8:	d002      	beq.n	80008f0 <HAL_RCC_OscConfig+0x13c>
 80008ea:	69bb      	ldr	r3, [r7, #24]
 80008ec:	2b04      	cmp	r3, #4
 80008ee:	d11f      	bne.n	8000930 <HAL_RCC_OscConfig+0x17c>
    {
      /* When HSI is used as system clock it will not be disabled */
      if ((READ_BIT(RCC->CR, RCC_CR_HSIRDY) != 0U) && (RCC_OscInitStruct->HSIState == RCC_HSI_OFF))
 80008f0:	4b4f      	ldr	r3, [pc, #316]	; (8000a30 <HAL_RCC_OscConfig+0x27c>)
 80008f2:	681b      	ldr	r3, [r3, #0]
 80008f4:	f403 6380 	and.w	r3, r3, #1024	; 0x400
 80008f8:	2b00      	cmp	r3, #0
 80008fa:	d005      	beq.n	8000908 <HAL_RCC_OscConfig+0x154>
 80008fc:	687b      	ldr	r3, [r7, #4]
 80008fe:	68db      	ldr	r3, [r3, #12]
 8000900:	2b00      	cmp	r3, #0
 8000902:	d101      	bne.n	8000908 <HAL_RCC_OscConfig+0x154>
      {
        return HAL_ERROR;
 8000904:	2301      	movs	r3, #1
 8000906:	e265      	b.n	8000dd4 <HAL_RCC_OscConfig+0x620>
      }
      /* Otherwise, just the calibration is allowed */
      else
      {
        /* Adjusts the Internal High Speed oscillator (HSI) calibration value.*/
        __HAL_RCC_HSI_CALIBRATIONVALUE_ADJUST(RCC_OscInitStruct->HSICalibrationValue);
 8000908:	4b49      	ldr	r3, [pc, #292]	; (8000a30 <HAL_RCC_OscConfig+0x27c>)
 800090a:	685b      	ldr	r3, [r3, #4]
 800090c:	f023 42fe 	bic.w	r2, r3, #2130706432	; 0x7f000000
 8000910:	687b      	ldr	r3, [r7, #4]
 8000912:	691b      	ldr	r3, [r3, #16]
 8000914:	061b      	lsls	r3, r3, #24
 8000916:	4946      	ldr	r1, [pc, #280]	; (8000a30 <HAL_RCC_OscConfig+0x27c>)
 8000918:	4313      	orrs	r3, r2
 800091a:	604b      	str	r3, [r1, #4]

        /* Adapt Systick interrupt period */
        if (HAL_InitTick(uwTickPrio) != HAL_OK)
 800091c:	4b45      	ldr	r3, [pc, #276]	; (8000a34 <HAL_RCC_OscConfig+0x280>)
 800091e:	681b      	ldr	r3, [r3, #0]
 8000920:	4618      	mov	r0, r3
 8000922:	f7ff fd67 	bl	80003f4 <HAL_InitTick>
 8000926:	4603      	mov	r3, r0
 8000928:	2b00      	cmp	r3, #0
 800092a:	d043      	beq.n	80009b4 <HAL_RCC_OscConfig+0x200>
        {
          return HAL_ERROR;
 800092c:	2301      	movs	r3, #1
 800092e:	e251      	b.n	8000dd4 <HAL_RCC_OscConfig+0x620>
      }
    }
    else
    {
      /* Check the HSI State */
      if (RCC_OscInitStruct->HSIState != RCC_HSI_OFF)
 8000930:	687b      	ldr	r3, [r7, #4]
 8000932:	68db      	ldr	r3, [r3, #12]
 8000934:	2b00      	cmp	r3, #0
 8000936:	d023      	beq.n	8000980 <HAL_RCC_OscConfig+0x1cc>
      {
        /* Enable the Internal High Speed oscillator (HSI). */
        __HAL_RCC_HSI_ENABLE();
 8000938:	4b3d      	ldr	r3, [pc, #244]	; (8000a30 <HAL_RCC_OscConfig+0x27c>)
 800093a:	681b      	ldr	r3, [r3, #0]
 800093c:	4a3c      	ldr	r2, [pc, #240]	; (8000a30 <HAL_RCC_OscConfig+0x27c>)
 800093e:	f443 7380 	orr.w	r3, r3, #256	; 0x100
 8000942:	6013      	str	r3, [r2, #0]

        /* Get Start Tick*/
        tickstart = HAL_GetTick();
 8000944:	f7ff fda2 	bl	800048c <HAL_GetTick>
 8000948:	6138      	str	r0, [r7, #16]

        /* Wait till HSI is ready */
        while (READ_BIT(RCC->CR, RCC_CR_HSIRDY) == 0U)
 800094a:	e008      	b.n	800095e <HAL_RCC_OscConfig+0x1aa>
        {
          if ((HAL_GetTick() - tickstart) > HSI_TIMEOUT_VALUE)
 800094c:	f7ff fd9e 	bl	800048c <HAL_GetTick>
 8000950:	4602      	mov	r2, r0
 8000952:	693b      	ldr	r3, [r7, #16]
 8000954:	1ad3      	subs	r3, r2, r3
 8000956:	2b02      	cmp	r3, #2
 8000958:	d901      	bls.n	800095e <HAL_RCC_OscConfig+0x1aa>
          {
            return HAL_TIMEOUT;
 800095a:	2303      	movs	r3, #3
 800095c:	e23a      	b.n	8000dd4 <HAL_RCC_OscConfig+0x620>
        while (READ_BIT(RCC->CR, RCC_CR_HSIRDY) == 0U)
 800095e:	4b34      	ldr	r3, [pc, #208]	; (8000a30 <HAL_RCC_OscConfig+0x27c>)
 8000960:	681b      	ldr	r3, [r3, #0]
 8000962:	f403 6380 	and.w	r3, r3, #1024	; 0x400
 8000966:	2b00      	cmp	r3, #0
 8000968:	d0f0      	beq.n	800094c <HAL_RCC_OscConfig+0x198>
          }
        }

        /* Adjusts the Internal High Speed oscillator (HSI) calibration value.*/
        __HAL_RCC_HSI_CALIBRATIONVALUE_ADJUST(RCC_OscInitStruct->HSICalibrationValue);
 800096a:	4b31      	ldr	r3, [pc, #196]	; (8000a30 <HAL_RCC_OscConfig+0x27c>)
 800096c:	685b      	ldr	r3, [r3, #4]
 800096e:	f023 42fe 	bic.w	r2, r3, #2130706432	; 0x7f000000
 8000972:	687b      	ldr	r3, [r7, #4]
 8000974:	691b      	ldr	r3, [r3, #16]
 8000976:	061b      	lsls	r3, r3, #24
 8000978:	492d      	ldr	r1, [pc, #180]	; (8000a30 <HAL_RCC_OscConfig+0x27c>)
 800097a:	4313      	orrs	r3, r2
 800097c:	604b      	str	r3, [r1, #4]
 800097e:	e01a      	b.n	80009b6 <HAL_RCC_OscConfig+0x202>
      }
      else
      {
        /* Disable the Internal High Speed oscillator (HSI). */
        __HAL_RCC_HSI_DISABLE();
 8000980:	4b2b      	ldr	r3, [pc, #172]	; (8000a30 <HAL_RCC_OscConfig+0x27c>)
 8000982:	681b      	ldr	r3, [r3, #0]
 8000984:	4a2a      	ldr	r2, [pc, #168]	; (8000a30 <HAL_RCC_OscConfig+0x27c>)
 8000986:	f423 7380 	bic.w	r3, r3, #256	; 0x100
 800098a:	6013      	str	r3, [r2, #0]

        /* Get Start Tick*/
        tickstart = HAL_GetTick();
 800098c:	f7ff fd7e 	bl	800048c <HAL_GetTick>
 8000990:	6138      	str	r0, [r7, #16]

        /* Wait till HSI is disabled */
        while (READ_BIT(RCC->CR, RCC_CR_HSIRDY) != 0U)
 8000992:	e008      	b.n	80009a6 <HAL_RCC_OscConfig+0x1f2>
        {
          if ((HAL_GetTick() - tickstart) > HSI_TIMEOUT_VALUE)
 8000994:	f7ff fd7a 	bl	800048c <HAL_GetTick>
 8000998:	4602      	mov	r2, r0
 800099a:	693b      	ldr	r3, [r7, #16]
 800099c:	1ad3      	subs	r3, r2, r3
 800099e:	2b02      	cmp	r3, #2
 80009a0:	d901      	bls.n	80009a6 <HAL_RCC_OscConfig+0x1f2>
          {
            return HAL_TIMEOUT;
 80009a2:	2303      	movs	r3, #3
 80009a4:	e216      	b.n	8000dd4 <HAL_RCC_OscConfig+0x620>
        while (READ_BIT(RCC->CR, RCC_CR_HSIRDY) != 0U)
 80009a6:	4b22      	ldr	r3, [pc, #136]	; (8000a30 <HAL_RCC_OscConfig+0x27c>)
 80009a8:	681b      	ldr	r3, [r3, #0]
 80009aa:	f403 6380 	and.w	r3, r3, #1024	; 0x400
 80009ae:	2b00      	cmp	r3, #0
 80009b0:	d1f0      	bne.n	8000994 <HAL_RCC_OscConfig+0x1e0>
 80009b2:	e000      	b.n	80009b6 <HAL_RCC_OscConfig+0x202>
      if ((READ_BIT(RCC->CR, RCC_CR_HSIRDY) != 0U) && (RCC_OscInitStruct->HSIState == RCC_HSI_OFF))
 80009b4:	bf00      	nop
        }
      }
    }
  }
  /*------------------------------ LSI Configuration -------------------------*/
  if (((RCC_OscInitStruct->OscillatorType) & RCC_OSCILLATORTYPE_LSI) == RCC_OSCILLATORTYPE_LSI)
 80009b6:	687b      	ldr	r3, [r7, #4]
 80009b8:	681b      	ldr	r3, [r3, #0]
 80009ba:	f003 0308 	and.w	r3, r3, #8
 80009be:	2b00      	cmp	r3, #0
 80009c0:	d041      	beq.n	8000a46 <HAL_RCC_OscConfig+0x292>
  {
    /* Check the parameters */
    assert_param(IS_RCC_LSI(RCC_OscInitStruct->LSIState));

    /* Check the LSI State */
    if(RCC_OscInitStruct->LSIState != RCC_LSI_OFF)
 80009c2:	687b      	ldr	r3, [r7, #4]
 80009c4:	695b      	ldr	r3, [r3, #20]
 80009c6:	2b00      	cmp	r3, #0
 80009c8:	d01c      	beq.n	8000a04 <HAL_RCC_OscConfig+0x250>
    {
      /* Enable the Internal Low Speed oscillator (LSI). */
      __HAL_RCC_LSI_ENABLE();
 80009ca:	4b19      	ldr	r3, [pc, #100]	; (8000a30 <HAL_RCC_OscConfig+0x27c>)
 80009cc:	f8d3 3094 	ldr.w	r3, [r3, #148]	; 0x94
 80009d0:	4a17      	ldr	r2, [pc, #92]	; (8000a30 <HAL_RCC_OscConfig+0x27c>)
 80009d2:	f043 0301 	orr.w	r3, r3, #1
 80009d6:	f8c2 3094 	str.w	r3, [r2, #148]	; 0x94

      /* Get Start Tick*/
      tickstart = HAL_GetTick();
 80009da:	f7ff fd57 	bl	800048c <HAL_GetTick>
 80009de:	6138      	str	r0, [r7, #16]

      /* Wait till LSI is ready */
      while (READ_BIT(RCC->CSR, RCC_CSR_LSIRDY) == 0U)
 80009e0:	e008      	b.n	80009f4 <HAL_RCC_OscConfig+0x240>
      {
        if ((HAL_GetTick() - tickstart) > LSI_TIMEOUT_VALUE)
 80009e2:	f7ff fd53 	bl	800048c <HAL_GetTick>
 80009e6:	4602      	mov	r2, r0
 80009e8:	693b      	ldr	r3, [r7, #16]
 80009ea:	1ad3      	subs	r3, r2, r3
 80009ec:	2b02      	cmp	r3, #2
 80009ee:	d901      	bls.n	80009f4 <HAL_RCC_OscConfig+0x240>
        {
          return HAL_TIMEOUT;
 80009f0:	2303      	movs	r3, #3
 80009f2:	e1ef      	b.n	8000dd4 <HAL_RCC_OscConfig+0x620>
      while (READ_BIT(RCC->CSR, RCC_CSR_LSIRDY) == 0U)
 80009f4:	4b0e      	ldr	r3, [pc, #56]	; (8000a30 <HAL_RCC_OscConfig+0x27c>)
 80009f6:	f8d3 3094 	ldr.w	r3, [r3, #148]	; 0x94
 80009fa:	f003 0302 	and.w	r3, r3, #2
 80009fe:	2b00      	cmp	r3, #0
 8000a00:	d0ef      	beq.n	80009e2 <HAL_RCC_OscConfig+0x22e>
 8000a02:	e020      	b.n	8000a46 <HAL_RCC_OscConfig+0x292>
      }
    }
    else
    {
      /* Disable the Internal Low Speed oscillator (LSI). */
      __HAL_RCC_LSI_DISABLE();
 8000a04:	4b0a      	ldr	r3, [pc, #40]	; (8000a30 <HAL_RCC_OscConfig+0x27c>)
 8000a06:	f8d3 3094 	ldr.w	r3, [r3, #148]	; 0x94
 8000a0a:	4a09      	ldr	r2, [pc, #36]	; (8000a30 <HAL_RCC_OscConfig+0x27c>)
 8000a0c:	f023 0301 	bic.w	r3, r3, #1
 8000a10:	f8c2 3094 	str.w	r3, [r2, #148]	; 0x94

      /* Get Start Tick*/
      tickstart = HAL_GetTick();
 8000a14:	f7ff fd3a 	bl	800048c <HAL_GetTick>
 8000a18:	6138      	str	r0, [r7, #16]

      /* Wait till LSI is disabled */
      while(READ_BIT(RCC->CSR, RCC_CSR_LSIRDY) != 0U)
 8000a1a:	e00d      	b.n	8000a38 <HAL_RCC_OscConfig+0x284>
      {
        if((HAL_GetTick() - tickstart) > LSI_TIMEOUT_VALUE)
 8000a1c:	f7ff fd36 	bl	800048c <HAL_GetTick>
 8000a20:	4602      	mov	r2, r0
 8000a22:	693b      	ldr	r3, [r7, #16]
 8000a24:	1ad3      	subs	r3, r2, r3
 8000a26:	2b02      	cmp	r3, #2
 8000a28:	d906      	bls.n	8000a38 <HAL_RCC_OscConfig+0x284>
        {
          return HAL_TIMEOUT;
 8000a2a:	2303      	movs	r3, #3
 8000a2c:	e1d2      	b.n	8000dd4 <HAL_RCC_OscConfig+0x620>
 8000a2e:	bf00      	nop
 8000a30:	40021000 	.word	0x40021000
 8000a34:	20000004 	.word	0x20000004
      while(READ_BIT(RCC->CSR, RCC_CSR_LSIRDY) != 0U)
 8000a38:	4b8c      	ldr	r3, [pc, #560]	; (8000c6c <HAL_RCC_OscConfig+0x4b8>)
 8000a3a:	f8d3 3094 	ldr.w	r3, [r3, #148]	; 0x94
 8000a3e:	f003 0302 	and.w	r3, r3, #2
 8000a42:	2b00      	cmp	r3, #0
 8000a44:	d1ea      	bne.n	8000a1c <HAL_RCC_OscConfig+0x268>
        }
      }
    }
  }
  /*------------------------------ LSE Configuration -------------------------*/
  if (((RCC_OscInitStruct->OscillatorType) & RCC_OSCILLATORTYPE_LSE) == RCC_OSCILLATORTYPE_LSE)
 8000a46:	687b      	ldr	r3, [r7, #4]
 8000a48:	681b      	ldr	r3, [r3, #0]
 8000a4a:	f003 0304 	and.w	r3, r3, #4
 8000a4e:	2b00      	cmp	r3, #0
 8000a50:	f000 80a6 	beq.w	8000ba0 <HAL_RCC_OscConfig+0x3ec>
  {
    FlagStatus       pwrclkchanged = RESET;
 8000a54:	2300      	movs	r3, #0
 8000a56:	77fb      	strb	r3, [r7, #31]
    /* Check the parameters */
    assert_param(IS_RCC_LSE(RCC_OscInitStruct->LSEState));

    /* Update LSE configuration in Backup Domain control register    */
    /* Requires to enable write access to Backup Domain if necessary */
    if (__HAL_RCC_PWR_IS_CLK_DISABLED() != 0U)
 8000a58:	4b84      	ldr	r3, [pc, #528]	; (8000c6c <HAL_RCC_OscConfig+0x4b8>)
 8000a5a:	6d9b      	ldr	r3, [r3, #88]	; 0x58
 8000a5c:	f003 5380 	and.w	r3, r3, #268435456	; 0x10000000
 8000a60:	2b00      	cmp	r3, #0
 8000a62:	d101      	bne.n	8000a68 <HAL_RCC_OscConfig+0x2b4>
 8000a64:	2301      	movs	r3, #1
 8000a66:	e000      	b.n	8000a6a <HAL_RCC_OscConfig+0x2b6>
 8000a68:	2300      	movs	r3, #0
 8000a6a:	2b00      	cmp	r3, #0
 8000a6c:	d00d      	beq.n	8000a8a <HAL_RCC_OscConfig+0x2d6>
    {
      __HAL_RCC_PWR_CLK_ENABLE();
 8000a6e:	4b7f      	ldr	r3, [pc, #508]	; (8000c6c <HAL_RCC_OscConfig+0x4b8>)
 8000a70:	6d9b      	ldr	r3, [r3, #88]	; 0x58
 8000a72:	4a7e      	ldr	r2, [pc, #504]	; (8000c6c <HAL_RCC_OscConfig+0x4b8>)
 8000a74:	f043 5380 	orr.w	r3, r3, #268435456	; 0x10000000
 8000a78:	6593      	str	r3, [r2, #88]	; 0x58
 8000a7a:	4b7c      	ldr	r3, [pc, #496]	; (8000c6c <HAL_RCC_OscConfig+0x4b8>)
 8000a7c:	6d9b      	ldr	r3, [r3, #88]	; 0x58
 8000a7e:	f003 5380 	and.w	r3, r3, #268435456	; 0x10000000
 8000a82:	60fb      	str	r3, [r7, #12]
 8000a84:	68fb      	ldr	r3, [r7, #12]
      pwrclkchanged = SET;
 8000a86:	2301      	movs	r3, #1
 8000a88:	77fb      	strb	r3, [r7, #31]
    }

    if (HAL_IS_BIT_CLR(PWR->CR1, PWR_CR1_DBP))
 8000a8a:	4b79      	ldr	r3, [pc, #484]	; (8000c70 <HAL_RCC_OscConfig+0x4bc>)
 8000a8c:	681b      	ldr	r3, [r3, #0]
 8000a8e:	f403 7380 	and.w	r3, r3, #256	; 0x100
 8000a92:	2b00      	cmp	r3, #0
 8000a94:	d118      	bne.n	8000ac8 <HAL_RCC_OscConfig+0x314>
    {
      /* Enable write access to Backup domain */
      SET_BIT(PWR->CR1, PWR_CR1_DBP);
 8000a96:	4b76      	ldr	r3, [pc, #472]	; (8000c70 <HAL_RCC_OscConfig+0x4bc>)
 8000a98:	681b      	ldr	r3, [r3, #0]
 8000a9a:	4a75      	ldr	r2, [pc, #468]	; (8000c70 <HAL_RCC_OscConfig+0x4bc>)
 8000a9c:	f443 7380 	orr.w	r3, r3, #256	; 0x100
 8000aa0:	6013      	str	r3, [r2, #0]

      /* Wait for Backup domain Write protection disable */
      tickstart = HAL_GetTick();
 8000aa2:	f7ff fcf3 	bl	800048c <HAL_GetTick>
 8000aa6:	6138      	str	r0, [r7, #16]

      while (HAL_IS_BIT_CLR(PWR->CR1, PWR_CR1_DBP))
 8000aa8:	e008      	b.n	8000abc <HAL_RCC_OscConfig+0x308>
      {
        if ((HAL_GetTick() - tickstart) > RCC_DBP_TIMEOUT_VALUE)
 8000aaa:	f7ff fcef 	bl	800048c <HAL_GetTick>
 8000aae:	4602      	mov	r2, r0
 8000ab0:	693b      	ldr	r3, [r7, #16]
 8000ab2:	1ad3      	subs	r3, r2, r3
 8000ab4:	2b02      	cmp	r3, #2
 8000ab6:	d901      	bls.n	8000abc <HAL_RCC_OscConfig+0x308>
        {
          return HAL_TIMEOUT;
 8000ab8:	2303      	movs	r3, #3
 8000aba:	e18b      	b.n	8000dd4 <HAL_RCC_OscConfig+0x620>
      while (HAL_IS_BIT_CLR(PWR->CR1, PWR_CR1_DBP))
 8000abc:	4b6c      	ldr	r3, [pc, #432]	; (8000c70 <HAL_RCC_OscConfig+0x4bc>)
 8000abe:	681b      	ldr	r3, [r3, #0]
 8000ac0:	f403 7380 	and.w	r3, r3, #256	; 0x100
 8000ac4:	2b00      	cmp	r3, #0
 8000ac6:	d0f0      	beq.n	8000aaa <HAL_RCC_OscConfig+0x2f6>
        }
      }
    }

    /* Set the new LSE configuration -----------------------------------------*/
    __HAL_RCC_LSE_CONFIG(RCC_OscInitStruct->LSEState);
 8000ac8:	687b      	ldr	r3, [r7, #4]
 8000aca:	689b      	ldr	r3, [r3, #8]
 8000acc:	2b01      	cmp	r3, #1
 8000ace:	d108      	bne.n	8000ae2 <HAL_RCC_OscConfig+0x32e>
 8000ad0:	4b66      	ldr	r3, [pc, #408]	; (8000c6c <HAL_RCC_OscConfig+0x4b8>)
 8000ad2:	f8d3 3090 	ldr.w	r3, [r3, #144]	; 0x90
 8000ad6:	4a65      	ldr	r2, [pc, #404]	; (8000c6c <HAL_RCC_OscConfig+0x4b8>)
 8000ad8:	f043 0301 	orr.w	r3, r3, #1
 8000adc:	f8c2 3090 	str.w	r3, [r2, #144]	; 0x90
 8000ae0:	e024      	b.n	8000b2c <HAL_RCC_OscConfig+0x378>
 8000ae2:	687b      	ldr	r3, [r7, #4]
 8000ae4:	689b      	ldr	r3, [r3, #8]
 8000ae6:	2b05      	cmp	r3, #5
 8000ae8:	d110      	bne.n	8000b0c <HAL_RCC_OscConfig+0x358>
 8000aea:	4b60      	ldr	r3, [pc, #384]	; (8000c6c <HAL_RCC_OscConfig+0x4b8>)
 8000aec:	f8d3 3090 	ldr.w	r3, [r3, #144]	; 0x90
 8000af0:	4a5e      	ldr	r2, [pc, #376]	; (8000c6c <HAL_RCC_OscConfig+0x4b8>)
 8000af2:	f043 0304 	orr.w	r3, r3, #4
 8000af6:	f8c2 3090 	str.w	r3, [r2, #144]	; 0x90
 8000afa:	4b5c      	ldr	r3, [pc, #368]	; (8000c6c <HAL_RCC_OscConfig+0x4b8>)
 8000afc:	f8d3 3090 	ldr.w	r3, [r3, #144]	; 0x90
 8000b00:	4a5a      	ldr	r2, [pc, #360]	; (8000c6c <HAL_RCC_OscConfig+0x4b8>)
 8000b02:	f043 0301 	orr.w	r3, r3, #1
 8000b06:	f8c2 3090 	str.w	r3, [r2, #144]	; 0x90
 8000b0a:	e00f      	b.n	8000b2c <HAL_RCC_OscConfig+0x378>
 8000b0c:	4b57      	ldr	r3, [pc, #348]	; (8000c6c <HAL_RCC_OscConfig+0x4b8>)
 8000b0e:	f8d3 3090 	ldr.w	r3, [r3, #144]	; 0x90
 8000b12:	4a56      	ldr	r2, [pc, #344]	; (8000c6c <HAL_RCC_OscConfig+0x4b8>)
 8000b14:	f023 0301 	bic.w	r3, r3, #1
 8000b18:	f8c2 3090 	str.w	r3, [r2, #144]	; 0x90
 8000b1c:	4b53      	ldr	r3, [pc, #332]	; (8000c6c <HAL_RCC_OscConfig+0x4b8>)
 8000b1e:	f8d3 3090 	ldr.w	r3, [r3, #144]	; 0x90
 8000b22:	4a52      	ldr	r2, [pc, #328]	; (8000c6c <HAL_RCC_OscConfig+0x4b8>)
 8000b24:	f023 0304 	bic.w	r3, r3, #4
 8000b28:	f8c2 3090 	str.w	r3, [r2, #144]	; 0x90

    /* Check the LSE State */
    if (RCC_OscInitStruct->LSEState != RCC_LSE_OFF)
 8000b2c:	687b      	ldr	r3, [r7, #4]
 8000b2e:	689b      	ldr	r3, [r3, #8]
 8000b30:	2b00      	cmp	r3, #0
 8000b32:	d016      	beq.n	8000b62 <HAL_RCC_OscConfig+0x3ae>
    {
      /* Get Start Tick*/
      tickstart = HAL_GetTick();
 8000b34:	f7ff fcaa 	bl	800048c <HAL_GetTick>
 8000b38:	6138      	str	r0, [r7, #16]

      /* Wait till LSE is ready */
      while (READ_BIT(RCC->BDCR, RCC_BDCR_LSERDY) == 0U)
 8000b3a:	e00a      	b.n	8000b52 <HAL_RCC_OscConfig+0x39e>
      {
        if((HAL_GetTick() - tickstart) > RCC_LSE_TIMEOUT_VALUE)
 8000b3c:	f7ff fca6 	bl	800048c <HAL_GetTick>
 8000b40:	4602      	mov	r2, r0
 8000b42:	693b      	ldr	r3, [r7, #16]
 8000b44:	1ad3      	subs	r3, r2, r3
 8000b46:	f241 3288 	movw	r2, #5000	; 0x1388
 8000b4a:	4293      	cmp	r3, r2
 8000b4c:	d901      	bls.n	8000b52 <HAL_RCC_OscConfig+0x39e>
        {
          return HAL_TIMEOUT;
 8000b4e:	2303      	movs	r3, #3
 8000b50:	e140      	b.n	8000dd4 <HAL_RCC_OscConfig+0x620>
      while (READ_BIT(RCC->BDCR, RCC_BDCR_LSERDY) == 0U)
 8000b52:	4b46      	ldr	r3, [pc, #280]	; (8000c6c <HAL_RCC_OscConfig+0x4b8>)
 8000b54:	f8d3 3090 	ldr.w	r3, [r3, #144]	; 0x90
 8000b58:	f003 0302 	and.w	r3, r3, #2
 8000b5c:	2b00      	cmp	r3, #0
 8000b5e:	d0ed      	beq.n	8000b3c <HAL_RCC_OscConfig+0x388>
 8000b60:	e015      	b.n	8000b8e <HAL_RCC_OscConfig+0x3da>
      }
    }
    else
    {
      /* Get Start Tick*/
      tickstart = HAL_GetTick();
 8000b62:	f7ff fc93 	bl	800048c <HAL_GetTick>
 8000b66:	6138      	str	r0, [r7, #16]

      /* Wait till LSE is disabled */
      while (READ_BIT(RCC->BDCR, RCC_BDCR_LSERDY) != 0U)
 8000b68:	e00a      	b.n	8000b80 <HAL_RCC_OscConfig+0x3cc>
      {
        if((HAL_GetTick() - tickstart) > RCC_LSE_TIMEOUT_VALUE)
 8000b6a:	f7ff fc8f 	bl	800048c <HAL_GetTick>
 8000b6e:	4602      	mov	r2, r0
 8000b70:	693b      	ldr	r3, [r7, #16]
 8000b72:	1ad3      	subs	r3, r2, r3
 8000b74:	f241 3288 	movw	r2, #5000	; 0x1388
 8000b78:	4293      	cmp	r3, r2
 8000b7a:	d901      	bls.n	8000b80 <HAL_RCC_OscConfig+0x3cc>
        {
          return HAL_TIMEOUT;
 8000b7c:	2303      	movs	r3, #3
 8000b7e:	e129      	b.n	8000dd4 <HAL_RCC_OscConfig+0x620>
      while (READ_BIT(RCC->BDCR, RCC_BDCR_LSERDY) != 0U)
 8000b80:	4b3a      	ldr	r3, [pc, #232]	; (8000c6c <HAL_RCC_OscConfig+0x4b8>)
 8000b82:	f8d3 3090 	ldr.w	r3, [r3, #144]	; 0x90
 8000b86:	f003 0302 	and.w	r3, r3, #2
 8000b8a:	2b00      	cmp	r3, #0
 8000b8c:	d1ed      	bne.n	8000b6a <HAL_RCC_OscConfig+0x3b6>
        }
      }
    }

    /* Restore clock configuration if changed */
    if (pwrclkchanged == SET)
 8000b8e:	7ffb      	ldrb	r3, [r7, #31]
 8000b90:	2b01      	cmp	r3, #1
 8000b92:	d105      	bne.n	8000ba0 <HAL_RCC_OscConfig+0x3ec>
    {
      __HAL_RCC_PWR_CLK_DISABLE();
 8000b94:	4b35      	ldr	r3, [pc, #212]	; (8000c6c <HAL_RCC_OscConfig+0x4b8>)
 8000b96:	6d9b      	ldr	r3, [r3, #88]	; 0x58
 8000b98:	4a34      	ldr	r2, [pc, #208]	; (8000c6c <HAL_RCC_OscConfig+0x4b8>)
 8000b9a:	f023 5380 	bic.w	r3, r3, #268435456	; 0x10000000
 8000b9e:	6593      	str	r3, [r2, #88]	; 0x58
    }
  }

  /*------------------------------ HSI48 Configuration -----------------------*/
  if(((RCC_OscInitStruct->OscillatorType) & RCC_OSCILLATORTYPE_HSI48) == RCC_OSCILLATORTYPE_HSI48)
 8000ba0:	687b      	ldr	r3, [r7, #4]
 8000ba2:	681b      	ldr	r3, [r3, #0]
 8000ba4:	f003 0320 	and.w	r3, r3, #32
 8000ba8:	2b00      	cmp	r3, #0
 8000baa:	d03c      	beq.n	8000c26 <HAL_RCC_OscConfig+0x472>
  {
    /* Check the parameters */
    assert_param(IS_RCC_HSI48(RCC_OscInitStruct->HSI48State));

    /* Check the HSI48 State */
    if(RCC_OscInitStruct->HSI48State != RCC_HSI48_OFF)
 8000bac:	687b      	ldr	r3, [r7, #4]
 8000bae:	699b      	ldr	r3, [r3, #24]
 8000bb0:	2b00      	cmp	r3, #0
 8000bb2:	d01c      	beq.n	8000bee <HAL_RCC_OscConfig+0x43a>
    {
      /* Enable the Internal Low Speed oscillator (HSI48). */
      __HAL_RCC_HSI48_ENABLE();
 8000bb4:	4b2d      	ldr	r3, [pc, #180]	; (8000c6c <HAL_RCC_OscConfig+0x4b8>)
 8000bb6:	f8d3 3098 	ldr.w	r3, [r3, #152]	; 0x98
 8000bba:	4a2c      	ldr	r2, [pc, #176]	; (8000c6c <HAL_RCC_OscConfig+0x4b8>)
 8000bbc:	f043 0301 	orr.w	r3, r3, #1
 8000bc0:	f8c2 3098 	str.w	r3, [r2, #152]	; 0x98

      /* Get Start Tick*/
      tickstart = HAL_GetTick();
 8000bc4:	f7ff fc62 	bl	800048c <HAL_GetTick>
 8000bc8:	6138      	str	r0, [r7, #16]

      /* Wait till HSI48 is ready */
      while(READ_BIT(RCC->CRRCR, RCC_CRRCR_HSI48RDY) == 0U)
 8000bca:	e008      	b.n	8000bde <HAL_RCC_OscConfig+0x42a>
      {
        if((HAL_GetTick() - tickstart) > HSI48_TIMEOUT_VALUE)
 8000bcc:	f7ff fc5e 	bl	800048c <HAL_GetTick>
 8000bd0:	4602      	mov	r2, r0
 8000bd2:	693b      	ldr	r3, [r7, #16]
 8000bd4:	1ad3      	subs	r3, r2, r3
 8000bd6:	2b02      	cmp	r3, #2
 8000bd8:	d901      	bls.n	8000bde <HAL_RCC_OscConfig+0x42a>
        {
          return HAL_TIMEOUT;
 8000bda:	2303      	movs	r3, #3
 8000bdc:	e0fa      	b.n	8000dd4 <HAL_RCC_OscConfig+0x620>
      while(READ_BIT(RCC->CRRCR, RCC_CRRCR_HSI48RDY) == 0U)
 8000bde:	4b23      	ldr	r3, [pc, #140]	; (8000c6c <HAL_RCC_OscConfig+0x4b8>)
 8000be0:	f8d3 3098 	ldr.w	r3, [r3, #152]	; 0x98
 8000be4:	f003 0302 	and.w	r3, r3, #2
 8000be8:	2b00      	cmp	r3, #0
 8000bea:	d0ef      	beq.n	8000bcc <HAL_RCC_OscConfig+0x418>
 8000bec:	e01b      	b.n	8000c26 <HAL_RCC_OscConfig+0x472>
      }
    }
    else
    {
      /* Disable the Internal Low Speed oscillator (HSI48). */
      __HAL_RCC_HSI48_DISABLE();
 8000bee:	4b1f      	ldr	r3, [pc, #124]	; (8000c6c <HAL_RCC_OscConfig+0x4b8>)
 8000bf0:	f8d3 3098 	ldr.w	r3, [r3, #152]	; 0x98
 8000bf4:	4a1d      	ldr	r2, [pc, #116]	; (8000c6c <HAL_RCC_OscConfig+0x4b8>)
 8000bf6:	f023 0301 	bic.w	r3, r3, #1
 8000bfa:	f8c2 3098 	str.w	r3, [r2, #152]	; 0x98

      /* Get Start Tick*/
      tickstart = HAL_GetTick();
 8000bfe:	f7ff fc45 	bl	800048c <HAL_GetTick>
 8000c02:	6138      	str	r0, [r7, #16]

      /* Wait till HSI48 is disabled */
      while(READ_BIT(RCC->CRRCR, RCC_CRRCR_HSI48RDY) != 0U)
 8000c04:	e008      	b.n	8000c18 <HAL_RCC_OscConfig+0x464>
      {
        if((HAL_GetTick() - tickstart) > HSI48_TIMEOUT_VALUE)
 8000c06:	f7ff fc41 	bl	800048c <HAL_GetTick>
 8000c0a:	4602      	mov	r2, r0
 8000c0c:	693b      	ldr	r3, [r7, #16]
 8000c0e:	1ad3      	subs	r3, r2, r3
 8000c10:	2b02      	cmp	r3, #2
 8000c12:	d901      	bls.n	8000c18 <HAL_RCC_OscConfig+0x464>
        {
          return HAL_TIMEOUT;
 8000c14:	2303      	movs	r3, #3
 8000c16:	e0dd      	b.n	8000dd4 <HAL_RCC_OscConfig+0x620>
      while(READ_BIT(RCC->CRRCR, RCC_CRRCR_HSI48RDY) != 0U)
 8000c18:	4b14      	ldr	r3, [pc, #80]	; (8000c6c <HAL_RCC_OscConfig+0x4b8>)
 8000c1a:	f8d3 3098 	ldr.w	r3, [r3, #152]	; 0x98
 8000c1e:	f003 0302 	and.w	r3, r3, #2
 8000c22:	2b00      	cmp	r3, #0
 8000c24:	d1ef      	bne.n	8000c06 <HAL_RCC_OscConfig+0x452>

  /*-------------------------------- PLL Configuration -----------------------*/
  /* Check the parameters */
  assert_param(IS_RCC_PLL(RCC_OscInitStruct->PLL.PLLState));

  if (RCC_OscInitStruct->PLL.PLLState != RCC_PLL_NONE)
 8000c26:	687b      	ldr	r3, [r7, #4]
 8000c28:	69db      	ldr	r3, [r3, #28]
 8000c2a:	2b00      	cmp	r3, #0
 8000c2c:	f000 80d1 	beq.w	8000dd2 <HAL_RCC_OscConfig+0x61e>
  {
    /* Check if the PLL is used as system clock or not */
    if (__HAL_RCC_GET_SYSCLK_SOURCE() != RCC_CFGR_SWS_PLL)
 8000c30:	4b0e      	ldr	r3, [pc, #56]	; (8000c6c <HAL_RCC_OscConfig+0x4b8>)
 8000c32:	689b      	ldr	r3, [r3, #8]
 8000c34:	f003 030c 	and.w	r3, r3, #12
 8000c38:	2b0c      	cmp	r3, #12
 8000c3a:	f000 808b 	beq.w	8000d54 <HAL_RCC_OscConfig+0x5a0>
    {
      if (RCC_OscInitStruct->PLL.PLLState == RCC_PLL_ON)
 8000c3e:	687b      	ldr	r3, [r7, #4]
 8000c40:	69db      	ldr	r3, [r3, #28]
 8000c42:	2b02      	cmp	r3, #2
 8000c44:	d15e      	bne.n	8000d04 <HAL_RCC_OscConfig+0x550>
        assert_param(IS_RCC_PLLP_VALUE(RCC_OscInitStruct->PLL.PLLP));
        assert_param(IS_RCC_PLLQ_VALUE(RCC_OscInitStruct->PLL.PLLQ));
        assert_param(IS_RCC_PLLR_VALUE(RCC_OscInitStruct->PLL.PLLR));

        /* Disable the main PLL. */
        __HAL_RCC_PLL_DISABLE();
 8000c46:	4b09      	ldr	r3, [pc, #36]	; (8000c6c <HAL_RCC_OscConfig+0x4b8>)
 8000c48:	681b      	ldr	r3, [r3, #0]
 8000c4a:	4a08      	ldr	r2, [pc, #32]	; (8000c6c <HAL_RCC_OscConfig+0x4b8>)
 8000c4c:	f023 7380 	bic.w	r3, r3, #16777216	; 0x1000000
 8000c50:	6013      	str	r3, [r2, #0]

        /* Get Start Tick*/
        tickstart = HAL_GetTick();
 8000c52:	f7ff fc1b 	bl	800048c <HAL_GetTick>
 8000c56:	6138      	str	r0, [r7, #16]

        /* Wait till PLL is ready */
        while (READ_BIT(RCC->CR, RCC_CR_PLLRDY) != 0U)
 8000c58:	e00c      	b.n	8000c74 <HAL_RCC_OscConfig+0x4c0>
        {
          if ((HAL_GetTick() - tickstart) > PLL_TIMEOUT_VALUE)
 8000c5a:	f7ff fc17 	bl	800048c <HAL_GetTick>
 8000c5e:	4602      	mov	r2, r0
 8000c60:	693b      	ldr	r3, [r7, #16]
 8000c62:	1ad3      	subs	r3, r2, r3
 8000c64:	2b02      	cmp	r3, #2
 8000c66:	d905      	bls.n	8000c74 <HAL_RCC_OscConfig+0x4c0>
          {
            return HAL_TIMEOUT;
 8000c68:	2303      	movs	r3, #3
 8000c6a:	e0b3      	b.n	8000dd4 <HAL_RCC_OscConfig+0x620>
 8000c6c:	40021000 	.word	0x40021000
 8000c70:	40007000 	.word	0x40007000
        while (READ_BIT(RCC->CR, RCC_CR_PLLRDY) != 0U)
 8000c74:	4b59      	ldr	r3, [pc, #356]	; (8000ddc <HAL_RCC_OscConfig+0x628>)
 8000c76:	681b      	ldr	r3, [r3, #0]
 8000c78:	f003 7300 	and.w	r3, r3, #33554432	; 0x2000000
 8000c7c:	2b00      	cmp	r3, #0
 8000c7e:	d1ec      	bne.n	8000c5a <HAL_RCC_OscConfig+0x4a6>
          }
        }

        /* Configure the main PLL clock source, multiplication and division factors. */
        __HAL_RCC_PLL_CONFIG(RCC_OscInitStruct->PLL.PLLSource,
 8000c80:	4b56      	ldr	r3, [pc, #344]	; (8000ddc <HAL_RCC_OscConfig+0x628>)
 8000c82:	68da      	ldr	r2, [r3, #12]
 8000c84:	4b56      	ldr	r3, [pc, #344]	; (8000de0 <HAL_RCC_OscConfig+0x62c>)
 8000c86:	4013      	ands	r3, r2
 8000c88:	687a      	ldr	r2, [r7, #4]
 8000c8a:	6a11      	ldr	r1, [r2, #32]
 8000c8c:	687a      	ldr	r2, [r7, #4]
 8000c8e:	6a52      	ldr	r2, [r2, #36]	; 0x24
 8000c90:	3a01      	subs	r2, #1
 8000c92:	0112      	lsls	r2, r2, #4
 8000c94:	4311      	orrs	r1, r2
 8000c96:	687a      	ldr	r2, [r7, #4]
 8000c98:	6a92      	ldr	r2, [r2, #40]	; 0x28
 8000c9a:	0212      	lsls	r2, r2, #8
 8000c9c:	4311      	orrs	r1, r2
 8000c9e:	687a      	ldr	r2, [r7, #4]
 8000ca0:	6b12      	ldr	r2, [r2, #48]	; 0x30
 8000ca2:	0852      	lsrs	r2, r2, #1
 8000ca4:	3a01      	subs	r2, #1
 8000ca6:	0552      	lsls	r2, r2, #21
 8000ca8:	4311      	orrs	r1, r2
 8000caa:	687a      	ldr	r2, [r7, #4]
 8000cac:	6b52      	ldr	r2, [r2, #52]	; 0x34
 8000cae:	0852      	lsrs	r2, r2, #1
 8000cb0:	3a01      	subs	r2, #1
 8000cb2:	0652      	lsls	r2, r2, #25
 8000cb4:	4311      	orrs	r1, r2
 8000cb6:	687a      	ldr	r2, [r7, #4]
 8000cb8:	6ad2      	ldr	r2, [r2, #44]	; 0x2c
 8000cba:	06d2      	lsls	r2, r2, #27
 8000cbc:	430a      	orrs	r2, r1
 8000cbe:	4947      	ldr	r1, [pc, #284]	; (8000ddc <HAL_RCC_OscConfig+0x628>)
 8000cc0:	4313      	orrs	r3, r2
 8000cc2:	60cb      	str	r3, [r1, #12]
                             RCC_OscInitStruct->PLL.PLLP,
                             RCC_OscInitStruct->PLL.PLLQ,
                             RCC_OscInitStruct->PLL.PLLR);

        /* Enable the main PLL. */
        __HAL_RCC_PLL_ENABLE();
 8000cc4:	4b45      	ldr	r3, [pc, #276]	; (8000ddc <HAL_RCC_OscConfig+0x628>)
 8000cc6:	681b      	ldr	r3, [r3, #0]
 8000cc8:	4a44      	ldr	r2, [pc, #272]	; (8000ddc <HAL_RCC_OscConfig+0x628>)
 8000cca:	f043 7380 	orr.w	r3, r3, #16777216	; 0x1000000
 8000cce:	6013      	str	r3, [r2, #0]

        /* Enable PLL System Clock output. */
         __HAL_RCC_PLLCLKOUT_ENABLE(RCC_PLL_SYSCLK);
 8000cd0:	4b42      	ldr	r3, [pc, #264]	; (8000ddc <HAL_RCC_OscConfig+0x628>)
 8000cd2:	68db      	ldr	r3, [r3, #12]
 8000cd4:	4a41      	ldr	r2, [pc, #260]	; (8000ddc <HAL_RCC_OscConfig+0x628>)
 8000cd6:	f043 7380 	orr.w	r3, r3, #16777216	; 0x1000000
 8000cda:	60d3      	str	r3, [r2, #12]

        /* Get Start Tick*/
        tickstart = HAL_GetTick();
 8000cdc:	f7ff fbd6 	bl	800048c <HAL_GetTick>
 8000ce0:	6138      	str	r0, [r7, #16]

        /* Wait till PLL is ready */
        while (READ_BIT(RCC->CR, RCC_CR_PLLRDY) == 0U)
 8000ce2:	e008      	b.n	8000cf6 <HAL_RCC_OscConfig+0x542>
        {
          if ((HAL_GetTick() - tickstart) > PLL_TIMEOUT_VALUE)
 8000ce4:	f7ff fbd2 	bl	800048c <HAL_GetTick>
 8000ce8:	4602      	mov	r2, r0
 8000cea:	693b      	ldr	r3, [r7, #16]
 8000cec:	1ad3      	subs	r3, r2, r3
 8000cee:	2b02      	cmp	r3, #2
 8000cf0:	d901      	bls.n	8000cf6 <HAL_RCC_OscConfig+0x542>
          {
            return HAL_TIMEOUT;
 8000cf2:	2303      	movs	r3, #3
 8000cf4:	e06e      	b.n	8000dd4 <HAL_RCC_OscConfig+0x620>
        while (READ_BIT(RCC->CR, RCC_CR_PLLRDY) == 0U)
 8000cf6:	4b39      	ldr	r3, [pc, #228]	; (8000ddc <HAL_RCC_OscConfig+0x628>)
 8000cf8:	681b      	ldr	r3, [r3, #0]
 8000cfa:	f003 7300 	and.w	r3, r3, #33554432	; 0x2000000
 8000cfe:	2b00      	cmp	r3, #0
 8000d00:	d0f0      	beq.n	8000ce4 <HAL_RCC_OscConfig+0x530>
 8000d02:	e066      	b.n	8000dd2 <HAL_RCC_OscConfig+0x61e>
        }
      }
      else
      {
        /* Disable the main PLL. */
        __HAL_RCC_PLL_DISABLE();
 8000d04:	4b35      	ldr	r3, [pc, #212]	; (8000ddc <HAL_RCC_OscConfig+0x628>)
 8000d06:	681b      	ldr	r3, [r3, #0]
 8000d08:	4a34      	ldr	r2, [pc, #208]	; (8000ddc <HAL_RCC_OscConfig+0x628>)
 8000d0a:	f023 7380 	bic.w	r3, r3, #16777216	; 0x1000000
 8000d0e:	6013      	str	r3, [r2, #0]

        /* Disable all PLL outputs to save power if no PLLs on */
          MODIFY_REG(RCC->PLLCFGR, RCC_PLLCFGR_PLLSRC, RCC_PLLSOURCE_NONE);
 8000d10:	4b32      	ldr	r3, [pc, #200]	; (8000ddc <HAL_RCC_OscConfig+0x628>)
 8000d12:	68db      	ldr	r3, [r3, #12]
 8000d14:	4a31      	ldr	r2, [pc, #196]	; (8000ddc <HAL_RCC_OscConfig+0x628>)
 8000d16:	f023 0303 	bic.w	r3, r3, #3
 8000d1a:	60d3      	str	r3, [r2, #12]
        __HAL_RCC_PLLCLKOUT_DISABLE(RCC_PLL_SYSCLK | RCC_PLL_48M1CLK | RCC_PLL_ADCCLK);
 8000d1c:	4b2f      	ldr	r3, [pc, #188]	; (8000ddc <HAL_RCC_OscConfig+0x628>)
 8000d1e:	68db      	ldr	r3, [r3, #12]
 8000d20:	4a2e      	ldr	r2, [pc, #184]	; (8000ddc <HAL_RCC_OscConfig+0x628>)
 8000d22:	f023 7388 	bic.w	r3, r3, #17825792	; 0x1100000
 8000d26:	f423 3380 	bic.w	r3, r3, #65536	; 0x10000
 8000d2a:	60d3      	str	r3, [r2, #12]

        /* Get Start Tick*/
        tickstart = HAL_GetTick();
 8000d2c:	f7ff fbae 	bl	800048c <HAL_GetTick>
 8000d30:	6138      	str	r0, [r7, #16]

        /* Wait till PLL is disabled */
        while (READ_BIT(RCC->CR, RCC_CR_PLLRDY) != 0U)
 8000d32:	e008      	b.n	8000d46 <HAL_RCC_OscConfig+0x592>
        {
          if ((HAL_GetTick() - tickstart) > PLL_TIMEOUT_VALUE)
 8000d34:	f7ff fbaa 	bl	800048c <HAL_GetTick>
 8000d38:	4602      	mov	r2, r0
 8000d3a:	693b      	ldr	r3, [r7, #16]
 8000d3c:	1ad3      	subs	r3, r2, r3
 8000d3e:	2b02      	cmp	r3, #2
 8000d40:	d901      	bls.n	8000d46 <HAL_RCC_OscConfig+0x592>
          {
            return HAL_TIMEOUT;
 8000d42:	2303      	movs	r3, #3
 8000d44:	e046      	b.n	8000dd4 <HAL_RCC_OscConfig+0x620>
        while (READ_BIT(RCC->CR, RCC_CR_PLLRDY) != 0U)
 8000d46:	4b25      	ldr	r3, [pc, #148]	; (8000ddc <HAL_RCC_OscConfig+0x628>)
 8000d48:	681b      	ldr	r3, [r3, #0]
 8000d4a:	f003 7300 	and.w	r3, r3, #33554432	; 0x2000000
 8000d4e:	2b00      	cmp	r3, #0
 8000d50:	d1f0      	bne.n	8000d34 <HAL_RCC_OscConfig+0x580>
 8000d52:	e03e      	b.n	8000dd2 <HAL_RCC_OscConfig+0x61e>
      }
    }
    else
    {
      /* Check if there is a request to disable the PLL used as System clock source */
      if((RCC_OscInitStruct->PLL.PLLState) == RCC_PLL_OFF)
 8000d54:	687b      	ldr	r3, [r7, #4]
 8000d56:	69db      	ldr	r3, [r3, #28]
 8000d58:	2b01      	cmp	r3, #1
 8000d5a:	d101      	bne.n	8000d60 <HAL_RCC_OscConfig+0x5ac>
      {
        return HAL_ERROR;
 8000d5c:	2301      	movs	r3, #1
 8000d5e:	e039      	b.n	8000dd4 <HAL_RCC_OscConfig+0x620>
      }
      else
      {
      /* Do not return HAL_ERROR if request repeats the current configuration */
      temp_pllckcfg = RCC->PLLCFGR;
 8000d60:	4b1e      	ldr	r3, [pc, #120]	; (8000ddc <HAL_RCC_OscConfig+0x628>)
 8000d62:	68db      	ldr	r3, [r3, #12]
 8000d64:	617b      	str	r3, [r7, #20]
      if((READ_BIT(temp_pllckcfg, RCC_PLLCFGR_PLLSRC) != RCC_OscInitStruct->PLL.PLLSource) ||
 8000d66:	697b      	ldr	r3, [r7, #20]
 8000d68:	f003 0203 	and.w	r2, r3, #3
 8000d6c:	687b      	ldr	r3, [r7, #4]
 8000d6e:	6a1b      	ldr	r3, [r3, #32]
 8000d70:	429a      	cmp	r2, r3
 8000d72:	d12c      	bne.n	8000dce <HAL_RCC_OscConfig+0x61a>
         (READ_BIT(temp_pllckcfg, RCC_PLLCFGR_PLLM) != (((RCC_OscInitStruct->PLL.PLLM) - 1U) << RCC_PLLCFGR_PLLM_Pos)) ||
 8000d74:	697b      	ldr	r3, [r7, #20]
 8000d76:	f003 02f0 	and.w	r2, r3, #240	; 0xf0
 8000d7a:	687b      	ldr	r3, [r7, #4]
 8000d7c:	6a5b      	ldr	r3, [r3, #36]	; 0x24
 8000d7e:	3b01      	subs	r3, #1
 8000d80:	011b      	lsls	r3, r3, #4
      if((READ_BIT(temp_pllckcfg, RCC_PLLCFGR_PLLSRC) != RCC_OscInitStruct->PLL.PLLSource) ||
 8000d82:	429a      	cmp	r2, r3
 8000d84:	d123      	bne.n	8000dce <HAL_RCC_OscConfig+0x61a>
         (READ_BIT(temp_pllckcfg, RCC_PLLCFGR_PLLN) != ((RCC_OscInitStruct->PLL.PLLN) << RCC_PLLCFGR_PLLN_Pos)) ||
 8000d86:	697b      	ldr	r3, [r7, #20]
 8000d88:	f403 42fe 	and.w	r2, r3, #32512	; 0x7f00
 8000d8c:	687b      	ldr	r3, [r7, #4]
 8000d8e:	6a9b      	ldr	r3, [r3, #40]	; 0x28
 8000d90:	021b      	lsls	r3, r3, #8
         (READ_BIT(temp_pllckcfg, RCC_PLLCFGR_PLLM) != (((RCC_OscInitStruct->PLL.PLLM) - 1U) << RCC_PLLCFGR_PLLM_Pos)) ||
 8000d92:	429a      	cmp	r2, r3
 8000d94:	d11b      	bne.n	8000dce <HAL_RCC_OscConfig+0x61a>
         (READ_BIT(temp_pllckcfg, RCC_PLLCFGR_PLLPDIV) != ((RCC_OscInitStruct->PLL.PLLP) << RCC_PLLCFGR_PLLPDIV_Pos)) ||
 8000d96:	697b      	ldr	r3, [r7, #20]
 8000d98:	f003 4278 	and.w	r2, r3, #4160749568	; 0xf8000000
 8000d9c:	687b      	ldr	r3, [r7, #4]
 8000d9e:	6adb      	ldr	r3, [r3, #44]	; 0x2c
 8000da0:	06db      	lsls	r3, r3, #27
         (READ_BIT(temp_pllckcfg, RCC_PLLCFGR_PLLN) != ((RCC_OscInitStruct->PLL.PLLN) << RCC_PLLCFGR_PLLN_Pos)) ||
 8000da2:	429a      	cmp	r2, r3
 8000da4:	d113      	bne.n	8000dce <HAL_RCC_OscConfig+0x61a>
         (READ_BIT(temp_pllckcfg, RCC_PLLCFGR_PLLQ) != ((((RCC_OscInitStruct->PLL.PLLQ) >> 1U) - 1U) << RCC_PLLCFGR_PLLQ_Pos)) ||
 8000da6:	697b      	ldr	r3, [r7, #20]
 8000da8:	f403 02c0 	and.w	r2, r3, #6291456	; 0x600000
 8000dac:	687b      	ldr	r3, [r7, #4]
 8000dae:	6b1b      	ldr	r3, [r3, #48]	; 0x30
 8000db0:	085b      	lsrs	r3, r3, #1
 8000db2:	3b01      	subs	r3, #1
 8000db4:	055b      	lsls	r3, r3, #21
         (READ_BIT(temp_pllckcfg, RCC_PLLCFGR_PLLPDIV) != ((RCC_OscInitStruct->PLL.PLLP) << RCC_PLLCFGR_PLLPDIV_Pos)) ||
 8000db6:	429a      	cmp	r2, r3
 8000db8:	d109      	bne.n	8000dce <HAL_RCC_OscConfig+0x61a>
         (READ_BIT(temp_pllckcfg, RCC_PLLCFGR_PLLR) != ((((RCC_OscInitStruct->PLL.PLLR) >> 1U) - 1U) << RCC_PLLCFGR_PLLR_Pos)))
 8000dba:	697b      	ldr	r3, [r7, #20]
 8000dbc:	f003 62c0 	and.w	r2, r3, #100663296	; 0x6000000
 8000dc0:	687b      	ldr	r3, [r7, #4]
 8000dc2:	6b5b      	ldr	r3, [r3, #52]	; 0x34
 8000dc4:	085b      	lsrs	r3, r3, #1
 8000dc6:	3b01      	subs	r3, #1
 8000dc8:	065b      	lsls	r3, r3, #25
         (READ_BIT(temp_pllckcfg, RCC_PLLCFGR_PLLQ) != ((((RCC_OscInitStruct->PLL.PLLQ) >> 1U) - 1U) << RCC_PLLCFGR_PLLQ_Pos)) ||
 8000dca:	429a      	cmp	r2, r3
 8000dcc:	d001      	beq.n	8000dd2 <HAL_RCC_OscConfig+0x61e>
      {
        return HAL_ERROR;
 8000dce:	2301      	movs	r3, #1
 8000dd0:	e000      	b.n	8000dd4 <HAL_RCC_OscConfig+0x620>
      }
    }
  }
  }

  return HAL_OK;
 8000dd2:	2300      	movs	r3, #0
}
 8000dd4:	4618      	mov	r0, r3
 8000dd6:	3720      	adds	r7, #32
 8000dd8:	46bd      	mov	sp, r7
 8000dda:	bd80      	pop	{r7, pc}
 8000ddc:	40021000 	.word	0x40021000
 8000de0:	019f800c 	.word	0x019f800c

08000de4 <HAL_RCC_ClockConfig>:
  *         HPRE[3:0] bits to ensure that HCLK not exceed the maximum allowed frequency
  *         (for more details refer to section above "Initialization/de-initialization functions")
  * @retval None
  */
HAL_StatusTypeDef HAL_RCC_ClockConfig(RCC_ClkInitTypeDef  *RCC_ClkInitStruct, uint32_t FLatency)
{
 8000de4:	b580      	push	{r7, lr}
 8000de6:	b086      	sub	sp, #24
 8000de8:	af00      	add	r7, sp, #0
 8000dea:	6078      	str	r0, [r7, #4]
 8000dec:	6039      	str	r1, [r7, #0]
  uint32_t tickstart;
  uint32_t pllfreq;
  uint32_t hpre = RCC_SYSCLK_DIV1;
 8000dee:	2300      	movs	r3, #0
 8000df0:	617b      	str	r3, [r7, #20]

  /* Check Null pointer */
  if (RCC_ClkInitStruct == NULL)
 8000df2:	687b      	ldr	r3, [r7, #4]
 8000df4:	2b00      	cmp	r3, #0
 8000df6:	d101      	bne.n	8000dfc <HAL_RCC_ClockConfig+0x18>
  {
    return HAL_ERROR;
 8000df8:	2301      	movs	r3, #1
 8000dfa:	e11e      	b.n	800103a <HAL_RCC_ClockConfig+0x256>
  /* To correctly read data from FLASH memory, the number of wait states (LATENCY)
    must be correctly programmed according to the frequency of the CPU clock
    (HCLK) and the supply voltage of the device. */

  /* Increasing the number of wait states because of higher CPU frequency */
  if (FLatency > __HAL_FLASH_GET_LATENCY())
 8000dfc:	4b91      	ldr	r3, [pc, #580]	; (8001044 <HAL_RCC_ClockConfig+0x260>)
 8000dfe:	681b      	ldr	r3, [r3, #0]
 8000e00:	f003 030f 	and.w	r3, r3, #15
 8000e04:	683a      	ldr	r2, [r7, #0]
 8000e06:	429a      	cmp	r2, r3
 8000e08:	d910      	bls.n	8000e2c <HAL_RCC_ClockConfig+0x48>
  {
    /* Program the new number of wait states to the LATENCY bits in the FLASH_ACR register */
    __HAL_FLASH_SET_LATENCY(FLatency);
 8000e0a:	4b8e      	ldr	r3, [pc, #568]	; (8001044 <HAL_RCC_ClockConfig+0x260>)
 8000e0c:	681b      	ldr	r3, [r3, #0]
 8000e0e:	f023 020f 	bic.w	r2, r3, #15
 8000e12:	498c      	ldr	r1, [pc, #560]	; (8001044 <HAL_RCC_ClockConfig+0x260>)
 8000e14:	683b      	ldr	r3, [r7, #0]
 8000e16:	4313      	orrs	r3, r2
 8000e18:	600b      	str	r3, [r1, #0]

    /* Check that the new number of wait states is taken into account to access the Flash
    memory by reading the FLASH_ACR register */
    if (__HAL_FLASH_GET_LATENCY() != FLatency)
 8000e1a:	4b8a      	ldr	r3, [pc, #552]	; (8001044 <HAL_RCC_ClockConfig+0x260>)
 8000e1c:	681b      	ldr	r3, [r3, #0]
 8000e1e:	f003 030f 	and.w	r3, r3, #15
 8000e22:	683a      	ldr	r2, [r7, #0]
 8000e24:	429a      	cmp	r2, r3
 8000e26:	d001      	beq.n	8000e2c <HAL_RCC_ClockConfig+0x48>
    {
      return HAL_ERROR;
 8000e28:	2301      	movs	r3, #1
 8000e2a:	e106      	b.n	800103a <HAL_RCC_ClockConfig+0x256>
    }
  }

  /*------------------------- SYSCLK Configuration ---------------------------*/
  if(((RCC_ClkInitStruct->ClockType) & RCC_CLOCKTYPE_SYSCLK) == RCC_CLOCKTYPE_SYSCLK)
 8000e2c:	687b      	ldr	r3, [r7, #4]
 8000e2e:	681b      	ldr	r3, [r3, #0]
 8000e30:	f003 0301 	and.w	r3, r3, #1
 8000e34:	2b00      	cmp	r3, #0
 8000e36:	d073      	beq.n	8000f20 <HAL_RCC_ClockConfig+0x13c>
  {
    assert_param(IS_RCC_SYSCLKSOURCE(RCC_ClkInitStruct->SYSCLKSource));

    /* PLL is selected as System Clock Source */
    if (RCC_ClkInitStruct->SYSCLKSource == RCC_SYSCLKSOURCE_PLLCLK)
 8000e38:	687b      	ldr	r3, [r7, #4]
 8000e3a:	685b      	ldr	r3, [r3, #4]
 8000e3c:	2b03      	cmp	r3, #3
 8000e3e:	d129      	bne.n	8000e94 <HAL_RCC_ClockConfig+0xb0>
    {
      /* Check the PLL ready flag */
      if (READ_BIT(RCC->CR, RCC_CR_PLLRDY) == 0U)
 8000e40:	4b81      	ldr	r3, [pc, #516]	; (8001048 <HAL_RCC_ClockConfig+0x264>)
 8000e42:	681b      	ldr	r3, [r3, #0]
 8000e44:	f003 7300 	and.w	r3, r3, #33554432	; 0x2000000
 8000e48:	2b00      	cmp	r3, #0
 8000e4a:	d101      	bne.n	8000e50 <HAL_RCC_ClockConfig+0x6c>
      {
        return HAL_ERROR;
 8000e4c:	2301      	movs	r3, #1
 8000e4e:	e0f4      	b.n	800103a <HAL_RCC_ClockConfig+0x256>
      }
      /* Undershoot management when selection PLL as SYSCLK source and frequency above 80Mhz */
      /* Compute target PLL output frequency */
      pllfreq = RCC_GetSysClockFreqFromPLLSource();
 8000e50:	f000 f966 	bl	8001120 <RCC_GetSysClockFreqFromPLLSource>
 8000e54:	6138      	str	r0, [r7, #16]

      /* Intermediate step with HCLK prescaler 2 necessary before to go over 80Mhz */
      if(pllfreq > 80000000U)
 8000e56:	693b      	ldr	r3, [r7, #16]
 8000e58:	4a7c      	ldr	r2, [pc, #496]	; (800104c <HAL_RCC_ClockConfig+0x268>)
 8000e5a:	4293      	cmp	r3, r2
 8000e5c:	d93f      	bls.n	8000ede <HAL_RCC_ClockConfig+0xfa>
      {
        if (((READ_BIT(RCC->CFGR, RCC_CFGR_HPRE) == RCC_SYSCLK_DIV1)) ||
 8000e5e:	4b7a      	ldr	r3, [pc, #488]	; (8001048 <HAL_RCC_ClockConfig+0x264>)
 8000e60:	689b      	ldr	r3, [r3, #8]
 8000e62:	f003 03f0 	and.w	r3, r3, #240	; 0xf0
 8000e66:	2b00      	cmp	r3, #0
 8000e68:	d009      	beq.n	8000e7e <HAL_RCC_ClockConfig+0x9a>
            (((((RCC_ClkInitStruct->ClockType) & RCC_CLOCKTYPE_HCLK) == RCC_CLOCKTYPE_HCLK) &&
 8000e6a:	687b      	ldr	r3, [r7, #4]
 8000e6c:	681b      	ldr	r3, [r3, #0]
 8000e6e:	f003 0302 	and.w	r3, r3, #2
        if (((READ_BIT(RCC->CFGR, RCC_CFGR_HPRE) == RCC_SYSCLK_DIV1)) ||
 8000e72:	2b00      	cmp	r3, #0
 8000e74:	d033      	beq.n	8000ede <HAL_RCC_ClockConfig+0xfa>
              (RCC_ClkInitStruct->AHBCLKDivider == RCC_SYSCLK_DIV1))))
 8000e76:	687b      	ldr	r3, [r7, #4]
 8000e78:	689b      	ldr	r3, [r3, #8]
            (((((RCC_ClkInitStruct->ClockType) & RCC_CLOCKTYPE_HCLK) == RCC_CLOCKTYPE_HCLK) &&
 8000e7a:	2b00      	cmp	r3, #0
 8000e7c:	d12f      	bne.n	8000ede <HAL_RCC_ClockConfig+0xfa>
        {
          MODIFY_REG(RCC->CFGR, RCC_CFGR_HPRE, RCC_SYSCLK_DIV2);
 8000e7e:	4b72      	ldr	r3, [pc, #456]	; (8001048 <HAL_RCC_ClockConfig+0x264>)
 8000e80:	689b      	ldr	r3, [r3, #8]
 8000e82:	f023 03f0 	bic.w	r3, r3, #240	; 0xf0
 8000e86:	4a70      	ldr	r2, [pc, #448]	; (8001048 <HAL_RCC_ClockConfig+0x264>)
 8000e88:	f043 0380 	orr.w	r3, r3, #128	; 0x80
 8000e8c:	6093      	str	r3, [r2, #8]
          hpre = RCC_SYSCLK_DIV2;
 8000e8e:	2380      	movs	r3, #128	; 0x80
 8000e90:	617b      	str	r3, [r7, #20]
 8000e92:	e024      	b.n	8000ede <HAL_RCC_ClockConfig+0xfa>
      }
    }
    else
    {
      /* HSE is selected as System Clock Source */
      if (RCC_ClkInitStruct->SYSCLKSource == RCC_SYSCLKSOURCE_HSE)
 8000e94:	687b      	ldr	r3, [r7, #4]
 8000e96:	685b      	ldr	r3, [r3, #4]
 8000e98:	2b02      	cmp	r3, #2
 8000e9a:	d107      	bne.n	8000eac <HAL_RCC_ClockConfig+0xc8>
      {
        /* Check the HSE ready flag */
        if(READ_BIT(RCC->CR, RCC_CR_HSERDY) == 0U)
 8000e9c:	4b6a      	ldr	r3, [pc, #424]	; (8001048 <HAL_RCC_ClockConfig+0x264>)
 8000e9e:	681b      	ldr	r3, [r3, #0]
 8000ea0:	f403 3300 	and.w	r3, r3, #131072	; 0x20000
 8000ea4:	2b00      	cmp	r3, #0
 8000ea6:	d109      	bne.n	8000ebc <HAL_RCC_ClockConfig+0xd8>
        {
          return HAL_ERROR;
 8000ea8:	2301      	movs	r3, #1
 8000eaa:	e0c6      	b.n	800103a <HAL_RCC_ClockConfig+0x256>
      }
      /* HSI is selected as System Clock Source */
      else
      {
        /* Check the HSI ready flag */
        if(READ_BIT(RCC->CR, RCC_CR_HSIRDY) == 0U)
 8000eac:	4b66      	ldr	r3, [pc, #408]	; (8001048 <HAL_RCC_ClockConfig+0x264>)
 8000eae:	681b      	ldr	r3, [r3, #0]
 8000eb0:	f403 6380 	and.w	r3, r3, #1024	; 0x400
 8000eb4:	2b00      	cmp	r3, #0
 8000eb6:	d101      	bne.n	8000ebc <HAL_RCC_ClockConfig+0xd8>
        {
          return HAL_ERROR;
 8000eb8:	2301      	movs	r3, #1
 8000eba:	e0be      	b.n	800103a <HAL_RCC_ClockConfig+0x256>
        }
      }
      /* Overshoot management when going down from PLL as SYSCLK source and frequency above 80Mhz */
      pllfreq = HAL_RCC_GetSysClockFreq();
 8000ebc:	f000 f8ce 	bl	800105c <HAL_RCC_GetSysClockFreq>
 8000ec0:	6138      	str	r0, [r7, #16]

      /* Intermediate step with HCLK prescaler 2 necessary before to go under 80Mhz */
      if(pllfreq > 80000000U)
 8000ec2:	693b      	ldr	r3, [r7, #16]
 8000ec4:	4a61      	ldr	r2, [pc, #388]	; (800104c <HAL_RCC_ClockConfig+0x268>)
 8000ec6:	4293      	cmp	r3, r2
 8000ec8:	d909      	bls.n	8000ede <HAL_RCC_ClockConfig+0xfa>
      {
        MODIFY_REG(RCC->CFGR, RCC_CFGR_HPRE, RCC_SYSCLK_DIV2);
 8000eca:	4b5f      	ldr	r3, [pc, #380]	; (8001048 <HAL_RCC_ClockConfig+0x264>)
 8000ecc:	689b      	ldr	r3, [r3, #8]
 8000ece:	f023 03f0 	bic.w	r3, r3, #240	; 0xf0
 8000ed2:	4a5d      	ldr	r2, [pc, #372]	; (8001048 <HAL_RCC_ClockConfig+0x264>)
 8000ed4:	f043 0380 	orr.w	r3, r3, #128	; 0x80
 8000ed8:	6093      	str	r3, [r2, #8]
        hpre = RCC_SYSCLK_DIV2;
 8000eda:	2380      	movs	r3, #128	; 0x80
 8000edc:	617b      	str	r3, [r7, #20]
      }

    }

    MODIFY_REG(RCC->CFGR, RCC_CFGR_SW, RCC_ClkInitStruct->SYSCLKSource);
 8000ede:	4b5a      	ldr	r3, [pc, #360]	; (8001048 <HAL_RCC_ClockConfig+0x264>)
 8000ee0:	689b      	ldr	r3, [r3, #8]
 8000ee2:	f023 0203 	bic.w	r2, r3, #3
 8000ee6:	687b      	ldr	r3, [r7, #4]
 8000ee8:	685b      	ldr	r3, [r3, #4]
 8000eea:	4957      	ldr	r1, [pc, #348]	; (8001048 <HAL_RCC_ClockConfig+0x264>)
 8000eec:	4313      	orrs	r3, r2
 8000eee:	608b      	str	r3, [r1, #8]

    /* Get Start Tick*/
    tickstart = HAL_GetTick();
 8000ef0:	f7ff facc 	bl	800048c <HAL_GetTick>
 8000ef4:	60f8      	str	r0, [r7, #12]

    while (__HAL_RCC_GET_SYSCLK_SOURCE() != (RCC_ClkInitStruct->SYSCLKSource << RCC_CFGR_SWS_Pos))
 8000ef6:	e00a      	b.n	8000f0e <HAL_RCC_ClockConfig+0x12a>
    {
      if ((HAL_GetTick() - tickstart) > CLOCKSWITCH_TIMEOUT_VALUE)
 8000ef8:	f7ff fac8 	bl	800048c <HAL_GetTick>
 8000efc:	4602      	mov	r2, r0
 8000efe:	68fb      	ldr	r3, [r7, #12]
 8000f00:	1ad3      	subs	r3, r2, r3
 8000f02:	f241 3288 	movw	r2, #5000	; 0x1388
 8000f06:	4293      	cmp	r3, r2
 8000f08:	d901      	bls.n	8000f0e <HAL_RCC_ClockConfig+0x12a>
      {
        return HAL_TIMEOUT;
 8000f0a:	2303      	movs	r3, #3
 8000f0c:	e095      	b.n	800103a <HAL_RCC_ClockConfig+0x256>
    while (__HAL_RCC_GET_SYSCLK_SOURCE() != (RCC_ClkInitStruct->SYSCLKSource << RCC_CFGR_SWS_Pos))
 8000f0e:	4b4e      	ldr	r3, [pc, #312]	; (8001048 <HAL_RCC_ClockConfig+0x264>)
 8000f10:	689b      	ldr	r3, [r3, #8]
 8000f12:	f003 020c 	and.w	r2, r3, #12
 8000f16:	687b      	ldr	r3, [r7, #4]
 8000f18:	685b      	ldr	r3, [r3, #4]
 8000f1a:	009b      	lsls	r3, r3, #2
 8000f1c:	429a      	cmp	r2, r3
 8000f1e:	d1eb      	bne.n	8000ef8 <HAL_RCC_ClockConfig+0x114>
      }
    }
  }

  /*-------------------------- HCLK Configuration --------------------------*/
  if (((RCC_ClkInitStruct->ClockType) & RCC_CLOCKTYPE_HCLK) == RCC_CLOCKTYPE_HCLK)
 8000f20:	687b      	ldr	r3, [r7, #4]
 8000f22:	681b      	ldr	r3, [r3, #0]
 8000f24:	f003 0302 	and.w	r3, r3, #2
 8000f28:	2b00      	cmp	r3, #0
 8000f2a:	d023      	beq.n	8000f74 <HAL_RCC_ClockConfig+0x190>
  {
    /* Set the highest APB divider in order to ensure that we do not go through
       a non-spec phase whatever we decrease or increase HCLK. */
    if (((RCC_ClkInitStruct->ClockType) & RCC_CLOCKTYPE_PCLK1) == RCC_CLOCKTYPE_PCLK1)
 8000f2c:	687b      	ldr	r3, [r7, #4]
 8000f2e:	681b      	ldr	r3, [r3, #0]
 8000f30:	f003 0304 	and.w	r3, r3, #4
 8000f34:	2b00      	cmp	r3, #0
 8000f36:	d005      	beq.n	8000f44 <HAL_RCC_ClockConfig+0x160>
    {
      MODIFY_REG(RCC->CFGR, RCC_CFGR_PPRE1, RCC_HCLK_DIV16);
 8000f38:	4b43      	ldr	r3, [pc, #268]	; (8001048 <HAL_RCC_ClockConfig+0x264>)
 8000f3a:	689b      	ldr	r3, [r3, #8]
 8000f3c:	4a42      	ldr	r2, [pc, #264]	; (8001048 <HAL_RCC_ClockConfig+0x264>)
 8000f3e:	f443 63e0 	orr.w	r3, r3, #1792	; 0x700
 8000f42:	6093      	str	r3, [r2, #8]
    }
    if (((RCC_ClkInitStruct->ClockType) & RCC_CLOCKTYPE_PCLK2) == RCC_CLOCKTYPE_PCLK2)
 8000f44:	687b      	ldr	r3, [r7, #4]
 8000f46:	681b      	ldr	r3, [r3, #0]
 8000f48:	f003 0308 	and.w	r3, r3, #8
 8000f4c:	2b00      	cmp	r3, #0
 8000f4e:	d007      	beq.n	8000f60 <HAL_RCC_ClockConfig+0x17c>
    {
      MODIFY_REG(RCC->CFGR, RCC_CFGR_PPRE2, RCC_HCLK_DIV16);
 8000f50:	4b3d      	ldr	r3, [pc, #244]	; (8001048 <HAL_RCC_ClockConfig+0x264>)
 8000f52:	689b      	ldr	r3, [r3, #8]
 8000f54:	f423 537c 	bic.w	r3, r3, #16128	; 0x3f00
 8000f58:	4a3b      	ldr	r2, [pc, #236]	; (8001048 <HAL_RCC_ClockConfig+0x264>)
 8000f5a:	f443 63e0 	orr.w	r3, r3, #1792	; 0x700
 8000f5e:	6093      	str	r3, [r2, #8]
    }

    /* Set the new HCLK clock divider */
    assert_param(IS_RCC_HCLK(RCC_ClkInitStruct->AHBCLKDivider));
    MODIFY_REG(RCC->CFGR, RCC_CFGR_HPRE, RCC_ClkInitStruct->AHBCLKDivider);
 8000f60:	4b39      	ldr	r3, [pc, #228]	; (8001048 <HAL_RCC_ClockConfig+0x264>)
 8000f62:	689b      	ldr	r3, [r3, #8]
 8000f64:	f023 02f0 	bic.w	r2, r3, #240	; 0xf0
 8000f68:	687b      	ldr	r3, [r7, #4]
 8000f6a:	689b      	ldr	r3, [r3, #8]
 8000f6c:	4936      	ldr	r1, [pc, #216]	; (8001048 <HAL_RCC_ClockConfig+0x264>)
 8000f6e:	4313      	orrs	r3, r2
 8000f70:	608b      	str	r3, [r1, #8]
 8000f72:	e008      	b.n	8000f86 <HAL_RCC_ClockConfig+0x1a2>
  }
  else
  {
    /* Is intermediate HCLK prescaler 2 applied internally, complete with HCLK prescaler 1 */
    if(hpre == RCC_SYSCLK_DIV2)
 8000f74:	697b      	ldr	r3, [r7, #20]
 8000f76:	2b80      	cmp	r3, #128	; 0x80
 8000f78:	d105      	bne.n	8000f86 <HAL_RCC_ClockConfig+0x1a2>
    {
      MODIFY_REG(RCC->CFGR, RCC_CFGR_HPRE, RCC_SYSCLK_DIV1);
 8000f7a:	4b33      	ldr	r3, [pc, #204]	; (8001048 <HAL_RCC_ClockConfig+0x264>)
 8000f7c:	689b      	ldr	r3, [r3, #8]
 8000f7e:	4a32      	ldr	r2, [pc, #200]	; (8001048 <HAL_RCC_ClockConfig+0x264>)
 8000f80:	f023 03f0 	bic.w	r3, r3, #240	; 0xf0
 8000f84:	6093      	str	r3, [r2, #8]
    }
  }

  /* Decreasing the number of wait states because of lower CPU frequency */
  if (FLatency < __HAL_FLASH_GET_LATENCY())
 8000f86:	4b2f      	ldr	r3, [pc, #188]	; (8001044 <HAL_RCC_ClockConfig+0x260>)
 8000f88:	681b      	ldr	r3, [r3, #0]
 8000f8a:	f003 030f 	and.w	r3, r3, #15
 8000f8e:	683a      	ldr	r2, [r7, #0]
 8000f90:	429a      	cmp	r2, r3
 8000f92:	d21d      	bcs.n	8000fd0 <HAL_RCC_ClockConfig+0x1ec>
  {
    /* Program the new number of wait states to the LATENCY bits in the FLASH_ACR register */
    __HAL_FLASH_SET_LATENCY(FLatency);
 8000f94:	4b2b      	ldr	r3, [pc, #172]	; (8001044 <HAL_RCC_ClockConfig+0x260>)
 8000f96:	681b      	ldr	r3, [r3, #0]
 8000f98:	f023 020f 	bic.w	r2, r3, #15
 8000f9c:	4929      	ldr	r1, [pc, #164]	; (8001044 <HAL_RCC_ClockConfig+0x260>)
 8000f9e:	683b      	ldr	r3, [r7, #0]
 8000fa0:	4313      	orrs	r3, r2
 8000fa2:	600b      	str	r3, [r1, #0]

    /* Check that the new number of wait states is taken into account to access the Flash
    memory by polling the FLASH_ACR register */
    tickstart = HAL_GetTick();
 8000fa4:	f7ff fa72 	bl	800048c <HAL_GetTick>
 8000fa8:	60f8      	str	r0, [r7, #12]

    while (__HAL_FLASH_GET_LATENCY() != FLatency)
 8000faa:	e00a      	b.n	8000fc2 <HAL_RCC_ClockConfig+0x1de>
    {
      if ((HAL_GetTick() - tickstart) > CLOCKSWITCH_TIMEOUT_VALUE)
 8000fac:	f7ff fa6e 	bl	800048c <HAL_GetTick>
 8000fb0:	4602      	mov	r2, r0
 8000fb2:	68fb      	ldr	r3, [r7, #12]
 8000fb4:	1ad3      	subs	r3, r2, r3
 8000fb6:	f241 3288 	movw	r2, #5000	; 0x1388
 8000fba:	4293      	cmp	r3, r2
 8000fbc:	d901      	bls.n	8000fc2 <HAL_RCC_ClockConfig+0x1de>
      {
        return HAL_TIMEOUT;
 8000fbe:	2303      	movs	r3, #3
 8000fc0:	e03b      	b.n	800103a <HAL_RCC_ClockConfig+0x256>
    while (__HAL_FLASH_GET_LATENCY() != FLatency)
 8000fc2:	4b20      	ldr	r3, [pc, #128]	; (8001044 <HAL_RCC_ClockConfig+0x260>)
 8000fc4:	681b      	ldr	r3, [r3, #0]
 8000fc6:	f003 030f 	and.w	r3, r3, #15
 8000fca:	683a      	ldr	r2, [r7, #0]
 8000fcc:	429a      	cmp	r2, r3
 8000fce:	d1ed      	bne.n	8000fac <HAL_RCC_ClockConfig+0x1c8>
      }
    }
  }

  /*-------------------------- PCLK1 Configuration ---------------------------*/
  if (((RCC_ClkInitStruct->ClockType) & RCC_CLOCKTYPE_PCLK1) == RCC_CLOCKTYPE_PCLK1)
 8000fd0:	687b      	ldr	r3, [r7, #4]
 8000fd2:	681b      	ldr	r3, [r3, #0]
 8000fd4:	f003 0304 	and.w	r3, r3, #4
 8000fd8:	2b00      	cmp	r3, #0
 8000fda:	d008      	beq.n	8000fee <HAL_RCC_ClockConfig+0x20a>
  {
    assert_param(IS_RCC_PCLK(RCC_ClkInitStruct->APB1CLKDivider));
    MODIFY_REG(RCC->CFGR, RCC_CFGR_PPRE1, RCC_ClkInitStruct->APB1CLKDivider);
 8000fdc:	4b1a      	ldr	r3, [pc, #104]	; (8001048 <HAL_RCC_ClockConfig+0x264>)
 8000fde:	689b      	ldr	r3, [r3, #8]
 8000fe0:	f423 62e0 	bic.w	r2, r3, #1792	; 0x700
 8000fe4:	687b      	ldr	r3, [r7, #4]
 8000fe6:	68db      	ldr	r3, [r3, #12]
 8000fe8:	4917      	ldr	r1, [pc, #92]	; (8001048 <HAL_RCC_ClockConfig+0x264>)
 8000fea:	4313      	orrs	r3, r2
 8000fec:	608b      	str	r3, [r1, #8]
  }

  /*-------------------------- PCLK2 Configuration ---------------------------*/
  if(((RCC_ClkInitStruct->ClockType) & RCC_CLOCKTYPE_PCLK2) == RCC_CLOCKTYPE_PCLK2)
 8000fee:	687b      	ldr	r3, [r7, #4]
 8000ff0:	681b      	ldr	r3, [r3, #0]
 8000ff2:	f003 0308 	and.w	r3, r3, #8
 8000ff6:	2b00      	cmp	r3, #0
 8000ff8:	d009      	beq.n	800100e <HAL_RCC_ClockConfig+0x22a>
  {
    assert_param(IS_RCC_PCLK(RCC_ClkInitStruct->APB2CLKDivider));
    MODIFY_REG(RCC->CFGR, RCC_CFGR_PPRE2, ((RCC_ClkInitStruct->APB2CLKDivider) << 3U));
 8000ffa:	4b13      	ldr	r3, [pc, #76]	; (8001048 <HAL_RCC_ClockConfig+0x264>)
 8000ffc:	689b      	ldr	r3, [r3, #8]
 8000ffe:	f423 5260 	bic.w	r2, r3, #14336	; 0x3800
 8001002:	687b      	ldr	r3, [r7, #4]
 8001004:	691b      	ldr	r3, [r3, #16]
 8001006:	00db      	lsls	r3, r3, #3
 8001008:	490f      	ldr	r1, [pc, #60]	; (8001048 <HAL_RCC_ClockConfig+0x264>)
 800100a:	4313      	orrs	r3, r2
 800100c:	608b      	str	r3, [r1, #8]
  }

  /* Update the SystemCoreClock global variable */
  SystemCoreClock = HAL_RCC_GetSysClockFreq() >> (AHBPrescTable[READ_BIT(RCC->CFGR, RCC_CFGR_HPRE) >> RCC_CFGR_HPRE_Pos] & 0x1FU);
 800100e:	f000 f825 	bl	800105c <HAL_RCC_GetSysClockFreq>
 8001012:	4602      	mov	r2, r0
 8001014:	4b0c      	ldr	r3, [pc, #48]	; (8001048 <HAL_RCC_ClockConfig+0x264>)
 8001016:	689b      	ldr	r3, [r3, #8]
 8001018:	091b      	lsrs	r3, r3, #4
 800101a:	f003 030f 	and.w	r3, r3, #15
 800101e:	490c      	ldr	r1, [pc, #48]	; (8001050 <HAL_RCC_ClockConfig+0x26c>)
 8001020:	5ccb      	ldrb	r3, [r1, r3]
 8001022:	f003 031f 	and.w	r3, r3, #31
 8001026:	fa22 f303 	lsr.w	r3, r2, r3
 800102a:	4a0a      	ldr	r2, [pc, #40]	; (8001054 <HAL_RCC_ClockConfig+0x270>)
 800102c:	6013      	str	r3, [r2, #0]

  /* Configure the source of time base considering new system clocks settings*/
  return HAL_InitTick(uwTickPrio);
 800102e:	4b0a      	ldr	r3, [pc, #40]	; (8001058 <HAL_RCC_ClockConfig+0x274>)
 8001030:	681b      	ldr	r3, [r3, #0]
 8001032:	4618      	mov	r0, r3
 8001034:	f7ff f9de 	bl	80003f4 <HAL_InitTick>
 8001038:	4603      	mov	r3, r0
}
 800103a:	4618      	mov	r0, r3
 800103c:	3718      	adds	r7, #24
 800103e:	46bd      	mov	sp, r7
 8001040:	bd80      	pop	{r7, pc}
 8001042:	bf00      	nop
 8001044:	40022000 	.word	0x40022000
 8001048:	40021000 	.word	0x40021000
 800104c:	04c4b400 	.word	0x04c4b400
 8001050:	0800121c 	.word	0x0800121c
 8001054:	20000000 	.word	0x20000000
 8001058:	20000004 	.word	0x20000004

0800105c <HAL_RCC_GetSysClockFreq>:
  *
  *
  * @retval SYSCLK frequency
  */
uint32_t HAL_RCC_GetSysClockFreq(void)
{
 800105c:	b480      	push	{r7}
 800105e:	b087      	sub	sp, #28
 8001060:	af00      	add	r7, sp, #0
  uint32_t pllvco, pllsource, pllr, pllm;
  uint32_t sysclockfreq;

  if (__HAL_RCC_GET_SYSCLK_SOURCE() == RCC_CFGR_SWS_HSI)
 8001062:	4b2c      	ldr	r3, [pc, #176]	; (8001114 <HAL_RCC_GetSysClockFreq+0xb8>)
 8001064:	689b      	ldr	r3, [r3, #8]
 8001066:	f003 030c 	and.w	r3, r3, #12
 800106a:	2b04      	cmp	r3, #4
 800106c:	d102      	bne.n	8001074 <HAL_RCC_GetSysClockFreq+0x18>
  {
    /* HSI used as system clock source */
    sysclockfreq = HSI_VALUE;
 800106e:	4b2a      	ldr	r3, [pc, #168]	; (8001118 <HAL_RCC_GetSysClockFreq+0xbc>)
 8001070:	613b      	str	r3, [r7, #16]
 8001072:	e047      	b.n	8001104 <HAL_RCC_GetSysClockFreq+0xa8>
  }
  else if (__HAL_RCC_GET_SYSCLK_SOURCE() == RCC_CFGR_SWS_HSE)
 8001074:	4b27      	ldr	r3, [pc, #156]	; (8001114 <HAL_RCC_GetSysClockFreq+0xb8>)
 8001076:	689b      	ldr	r3, [r3, #8]
 8001078:	f003 030c 	and.w	r3, r3, #12
 800107c:	2b08      	cmp	r3, #8
 800107e:	d102      	bne.n	8001086 <HAL_RCC_GetSysClockFreq+0x2a>
  {
    /* HSE used as system clock source */
    sysclockfreq = HSE_VALUE;
 8001080:	4b26      	ldr	r3, [pc, #152]	; (800111c <HAL_RCC_GetSysClockFreq+0xc0>)
 8001082:	613b      	str	r3, [r7, #16]
 8001084:	e03e      	b.n	8001104 <HAL_RCC_GetSysClockFreq+0xa8>
  }
  else if (__HAL_RCC_GET_SYSCLK_SOURCE() == RCC_CFGR_SWS_PLL)
 8001086:	4b23      	ldr	r3, [pc, #140]	; (8001114 <HAL_RCC_GetSysClockFreq+0xb8>)
 8001088:	689b      	ldr	r3, [r3, #8]
 800108a:	f003 030c 	and.w	r3, r3, #12
 800108e:	2b0c      	cmp	r3, #12
 8001090:	d136      	bne.n	8001100 <HAL_RCC_GetSysClockFreq+0xa4>
    /* PLL used as system clock  source */

    /* PLL_VCO = ((HSE_VALUE or HSI_VALUE)/ PLLM) * PLLN
    SYSCLK = PLL_VCO / PLLR
    */
    pllsource = READ_BIT(RCC->PLLCFGR, RCC_PLLCFGR_PLLSRC);
 8001092:	4b20      	ldr	r3, [pc, #128]	; (8001114 <HAL_RCC_GetSysClockFreq+0xb8>)
 8001094:	68db      	ldr	r3, [r3, #12]
 8001096:	f003 0303 	and.w	r3, r3, #3
 800109a:	60fb      	str	r3, [r7, #12]
    pllm = (READ_BIT(RCC->PLLCFGR, RCC_PLLCFGR_PLLM) >> RCC_PLLCFGR_PLLM_Pos) + 1U ;
 800109c:	4b1d      	ldr	r3, [pc, #116]	; (8001114 <HAL_RCC_GetSysClockFreq+0xb8>)
 800109e:	68db      	ldr	r3, [r3, #12]
 80010a0:	091b      	lsrs	r3, r3, #4
 80010a2:	f003 030f 	and.w	r3, r3, #15
 80010a6:	3301      	adds	r3, #1
 80010a8:	60bb      	str	r3, [r7, #8]

    switch (pllsource)
 80010aa:	68fb      	ldr	r3, [r7, #12]
 80010ac:	2b03      	cmp	r3, #3
 80010ae:	d10c      	bne.n	80010ca <HAL_RCC_GetSysClockFreq+0x6e>
    {
    case RCC_PLLSOURCE_HSE:  /* HSE used as PLL clock source */
      pllvco = (HSE_VALUE / pllm) * (READ_BIT(RCC->PLLCFGR, RCC_PLLCFGR_PLLN) >> RCC_PLLCFGR_PLLN_Pos);
 80010b0:	4a1a      	ldr	r2, [pc, #104]	; (800111c <HAL_RCC_GetSysClockFreq+0xc0>)
 80010b2:	68bb      	ldr	r3, [r7, #8]
 80010b4:	fbb2 f3f3 	udiv	r3, r2, r3
 80010b8:	4a16      	ldr	r2, [pc, #88]	; (8001114 <HAL_RCC_GetSysClockFreq+0xb8>)
 80010ba:	68d2      	ldr	r2, [r2, #12]
 80010bc:	0a12      	lsrs	r2, r2, #8
 80010be:	f002 027f 	and.w	r2, r2, #127	; 0x7f
 80010c2:	fb02 f303 	mul.w	r3, r2, r3
 80010c6:	617b      	str	r3, [r7, #20]
      break;
 80010c8:	e00c      	b.n	80010e4 <HAL_RCC_GetSysClockFreq+0x88>

    case RCC_PLLSOURCE_HSI:  /* HSI used as PLL clock source */
    default:
      pllvco = (HSI_VALUE / pllm) * (READ_BIT(RCC->PLLCFGR, RCC_PLLCFGR_PLLN) >> RCC_PLLCFGR_PLLN_Pos);
 80010ca:	4a13      	ldr	r2, [pc, #76]	; (8001118 <HAL_RCC_GetSysClockFreq+0xbc>)
 80010cc:	68bb      	ldr	r3, [r7, #8]
 80010ce:	fbb2 f3f3 	udiv	r3, r2, r3
 80010d2:	4a10      	ldr	r2, [pc, #64]	; (8001114 <HAL_RCC_GetSysClockFreq+0xb8>)
 80010d4:	68d2      	ldr	r2, [r2, #12]
 80010d6:	0a12      	lsrs	r2, r2, #8
 80010d8:	f002 027f 	and.w	r2, r2, #127	; 0x7f
 80010dc:	fb02 f303 	mul.w	r3, r2, r3
 80010e0:	617b      	str	r3, [r7, #20]
      break;
 80010e2:	bf00      	nop
    }
    pllr = ((READ_BIT(RCC->PLLCFGR, RCC_PLLCFGR_PLLR) >> RCC_PLLCFGR_PLLR_Pos) + 1U ) * 2U;
 80010e4:	4b0b      	ldr	r3, [pc, #44]	; (8001114 <HAL_RCC_GetSysClockFreq+0xb8>)
 80010e6:	68db      	ldr	r3, [r3, #12]
 80010e8:	0e5b      	lsrs	r3, r3, #25
 80010ea:	f003 0303 	and.w	r3, r3, #3
 80010ee:	3301      	adds	r3, #1
 80010f0:	005b      	lsls	r3, r3, #1
 80010f2:	607b      	str	r3, [r7, #4]
    sysclockfreq = pllvco/pllr;
 80010f4:	697a      	ldr	r2, [r7, #20]
 80010f6:	687b      	ldr	r3, [r7, #4]
 80010f8:	fbb2 f3f3 	udiv	r3, r2, r3
 80010fc:	613b      	str	r3, [r7, #16]
 80010fe:	e001      	b.n	8001104 <HAL_RCC_GetSysClockFreq+0xa8>
  }
  else
  {
    sysclockfreq = 0U;
 8001100:	2300      	movs	r3, #0
 8001102:	613b      	str	r3, [r7, #16]
  }

  return sysclockfreq;
 8001104:	693b      	ldr	r3, [r7, #16]
}
 8001106:	4618      	mov	r0, r3
 8001108:	371c      	adds	r7, #28
 800110a:	46bd      	mov	sp, r7
 800110c:	f85d 7b04 	ldr.w	r7, [sp], #4
 8001110:	4770      	bx	lr
 8001112:	bf00      	nop
 8001114:	40021000 	.word	0x40021000
 8001118:	00f42400 	.word	0x00f42400
 800111c:	007a1200 	.word	0x007a1200

08001120 <RCC_GetSysClockFreqFromPLLSource>:
/**
  * @brief  Compute SYSCLK frequency based on PLL SYSCLK source.
  * @retval SYSCLK frequency
  */
static uint32_t RCC_GetSysClockFreqFromPLLSource(void)
{
 8001120:	b480      	push	{r7}
 8001122:	b087      	sub	sp, #28
 8001124:	af00      	add	r7, sp, #0
  uint32_t sysclockfreq;

  /* PLL_VCO = (HSE_VALUE or HSI_VALUE/ PLLM) * PLLN
     SYSCLK = PLL_VCO / PLLR
   */
  pllsource = READ_BIT(RCC->PLLCFGR, RCC_PLLCFGR_PLLSRC);
 8001126:	4b1e      	ldr	r3, [pc, #120]	; (80011a0 <RCC_GetSysClockFreqFromPLLSource+0x80>)
 8001128:	68db      	ldr	r3, [r3, #12]
 800112a:	f003 0303 	and.w	r3, r3, #3
 800112e:	613b      	str	r3, [r7, #16]
  pllm = (READ_BIT(RCC->PLLCFGR, RCC_PLLCFGR_PLLM) >> RCC_PLLCFGR_PLLM_Pos) + 1U ;
 8001130:	4b1b      	ldr	r3, [pc, #108]	; (80011a0 <RCC_GetSysClockFreqFromPLLSource+0x80>)
 8001132:	68db      	ldr	r3, [r3, #12]
 8001134:	091b      	lsrs	r3, r3, #4
 8001136:	f003 030f 	and.w	r3, r3, #15
 800113a:	3301      	adds	r3, #1
 800113c:	60fb      	str	r3, [r7, #12]

  switch (pllsource)
 800113e:	693b      	ldr	r3, [r7, #16]
 8001140:	2b03      	cmp	r3, #3
 8001142:	d10c      	bne.n	800115e <RCC_GetSysClockFreqFromPLLSource+0x3e>
  {
  case RCC_PLLSOURCE_HSE:  /* HSE used as PLL clock source */
    pllvco = (HSE_VALUE / pllm) * (READ_BIT(RCC->PLLCFGR, RCC_PLLCFGR_PLLN) >> RCC_PLLCFGR_PLLN_Pos);
 8001144:	4a17      	ldr	r2, [pc, #92]	; (80011a4 <RCC_GetSysClockFreqFromPLLSource+0x84>)
 8001146:	68fb      	ldr	r3, [r7, #12]
 8001148:	fbb2 f3f3 	udiv	r3, r2, r3
 800114c:	4a14      	ldr	r2, [pc, #80]	; (80011a0 <RCC_GetSysClockFreqFromPLLSource+0x80>)
 800114e:	68d2      	ldr	r2, [r2, #12]
 8001150:	0a12      	lsrs	r2, r2, #8
 8001152:	f002 027f 	and.w	r2, r2, #127	; 0x7f
 8001156:	fb02 f303 	mul.w	r3, r2, r3
 800115a:	617b      	str	r3, [r7, #20]
    break;
 800115c:	e00c      	b.n	8001178 <RCC_GetSysClockFreqFromPLLSource+0x58>

  case RCC_PLLSOURCE_HSI:  /* HSI used as PLL clock source */
  default:
    pllvco = (HSI_VALUE / pllm) * (READ_BIT(RCC->PLLCFGR, RCC_PLLCFGR_PLLN) >> RCC_PLLCFGR_PLLN_Pos);
 800115e:	4a12      	ldr	r2, [pc, #72]	; (80011a8 <RCC_GetSysClockFreqFromPLLSource+0x88>)
 8001160:	68fb      	ldr	r3, [r7, #12]
 8001162:	fbb2 f3f3 	udiv	r3, r2, r3
 8001166:	4a0e      	ldr	r2, [pc, #56]	; (80011a0 <RCC_GetSysClockFreqFromPLLSource+0x80>)
 8001168:	68d2      	ldr	r2, [r2, #12]
 800116a:	0a12      	lsrs	r2, r2, #8
 800116c:	f002 027f 	and.w	r2, r2, #127	; 0x7f
 8001170:	fb02 f303 	mul.w	r3, r2, r3
 8001174:	617b      	str	r3, [r7, #20]
    break;
 8001176:	bf00      	nop
  }

  pllr = ((READ_BIT(RCC->PLLCFGR, RCC_PLLCFGR_PLLR) >> RCC_PLLCFGR_PLLR_Pos) + 1U ) * 2U;
 8001178:	4b09      	ldr	r3, [pc, #36]	; (80011a0 <RCC_GetSysClockFreqFromPLLSource+0x80>)
 800117a:	68db      	ldr	r3, [r3, #12]
 800117c:	0e5b      	lsrs	r3, r3, #25
 800117e:	f003 0303 	and.w	r3, r3, #3
 8001182:	3301      	adds	r3, #1
 8001184:	005b      	lsls	r3, r3, #1
 8001186:	60bb      	str	r3, [r7, #8]
  sysclockfreq = pllvco/pllr;
 8001188:	697a      	ldr	r2, [r7, #20]
 800118a:	68bb      	ldr	r3, [r7, #8]
 800118c:	fbb2 f3f3 	udiv	r3, r2, r3
 8001190:	607b      	str	r3, [r7, #4]

  return sysclockfreq;
 8001192:	687b      	ldr	r3, [r7, #4]
}
 8001194:	4618      	mov	r0, r3
 8001196:	371c      	adds	r7, #28
 8001198:	46bd      	mov	sp, r7
 800119a:	f85d 7b04 	ldr.w	r7, [sp], #4
 800119e:	4770      	bx	lr
 80011a0:	40021000 	.word	0x40021000
 80011a4:	007a1200 	.word	0x007a1200
 80011a8:	00f42400 	.word	0x00f42400

080011ac <__libc_init_array>:
 80011ac:	b570      	push	{r4, r5, r6, lr}
 80011ae:	4d0d      	ldr	r5, [pc, #52]	; (80011e4 <__libc_init_array+0x38>)
 80011b0:	4c0d      	ldr	r4, [pc, #52]	; (80011e8 <__libc_init_array+0x3c>)
 80011b2:	1b64      	subs	r4, r4, r5
 80011b4:	10a4      	asrs	r4, r4, #2
 80011b6:	2600      	movs	r6, #0
 80011b8:	42a6      	cmp	r6, r4
 80011ba:	d109      	bne.n	80011d0 <__libc_init_array+0x24>
 80011bc:	4d0b      	ldr	r5, [pc, #44]	; (80011ec <__libc_init_array+0x40>)
 80011be:	4c0c      	ldr	r4, [pc, #48]	; (80011f0 <__libc_init_array+0x44>)
 80011c0:	f000 f820 	bl	8001204 <_init>
 80011c4:	1b64      	subs	r4, r4, r5
 80011c6:	10a4      	asrs	r4, r4, #2
 80011c8:	2600      	movs	r6, #0
 80011ca:	42a6      	cmp	r6, r4
 80011cc:	d105      	bne.n	80011da <__libc_init_array+0x2e>
 80011ce:	bd70      	pop	{r4, r5, r6, pc}
 80011d0:	f855 3b04 	ldr.w	r3, [r5], #4
 80011d4:	4798      	blx	r3
 80011d6:	3601      	adds	r6, #1
 80011d8:	e7ee      	b.n	80011b8 <__libc_init_array+0xc>
 80011da:	f855 3b04 	ldr.w	r3, [r5], #4
 80011de:	4798      	blx	r3
 80011e0:	3601      	adds	r6, #1
 80011e2:	e7f2      	b.n	80011ca <__libc_init_array+0x1e>
 80011e4:	0800122c 	.word	0x0800122c
 80011e8:	0800122c 	.word	0x0800122c
 80011ec:	0800122c 	.word	0x0800122c
 80011f0:	08001230 	.word	0x08001230

080011f4 <memset>:
 80011f4:	4402      	add	r2, r0
 80011f6:	4603      	mov	r3, r0
 80011f8:	4293      	cmp	r3, r2
 80011fa:	d100      	bne.n	80011fe <memset+0xa>
 80011fc:	4770      	bx	lr
 80011fe:	f803 1b01 	strb.w	r1, [r3], #1
 8001202:	e7f9      	b.n	80011f8 <memset+0x4>

08001204 <_init>:
 8001204:	b5f8      	push	{r3, r4, r5, r6, r7, lr}
 8001206:	bf00      	nop
 8001208:	bcf8      	pop	{r3, r4, r5, r6, r7}
 800120a:	bc08      	pop	{r3}
 800120c:	469e      	mov	lr, r3
 800120e:	4770      	bx	lr

08001210 <_fini>:
 8001210:	b5f8      	push	{r3, r4, r5, r6, r7, lr}
 8001212:	bf00      	nop
 8001214:	bcf8      	pop	{r3, r4, r5, r6, r7}
 8001216:	bc08      	pop	{r3}
 8001218:	469e      	mov	lr, r3
 800121a:	4770      	bx	lr
